
exec/voxelizer:     file format elf64-x86-64


Disassembly of section .init:

0000000000002000 <_init>:
    2000:	f3 0f 1e fa          	endbr64 
    2004:	48 83 ec 08          	sub    $0x8,%rsp
    2008:	48 8b 05 d1 bf 00 00 	mov    0xbfd1(%rip),%rax        # dfe0 <__gmon_start__@Base>
    200f:	48 85 c0             	test   %rax,%rax
    2012:	74 02                	je     2016 <_init+0x16>
    2014:	ff d0                	call   *%rax
    2016:	48 83 c4 08          	add    $0x8,%rsp
    201a:	c3                   	ret    

Disassembly of section .plt:

0000000000002020 <_Znam@plt-0x10>:
    2020:	ff 35 e2 bf 00 00    	push   0xbfe2(%rip)        # e008 <_GLOBAL_OFFSET_TABLE_+0x8>
    2026:	ff 25 e4 bf 00 00    	jmp    *0xbfe4(%rip)        # e010 <_GLOBAL_OFFSET_TABLE_+0x10>
    202c:	0f 1f 40 00          	nopl   0x0(%rax)

0000000000002030 <_Znam@plt>:
    2030:	ff 25 e2 bf 00 00    	jmp    *0xbfe2(%rip)        # e018 <_Znam@GLIBCXX_3.4>
    2036:	68 00 00 00 00       	push   $0x0
    203b:	e9 e0 ff ff ff       	jmp    2020 <_init+0x20>

0000000000002040 <printf@plt>:
    2040:	ff 25 da bf 00 00    	jmp    *0xbfda(%rip)        # e020 <printf@GLIBC_2.2.5>
    2046:	68 01 00 00 00       	push   $0x1
    204b:	e9 d0 ff ff ff       	jmp    2020 <_init+0x20>

0000000000002050 <_ZNSt13basic_filebufIcSt11char_traitsIcEE5closeEv@plt>:
    2050:	ff 25 d2 bf 00 00    	jmp    *0xbfd2(%rip)        # e028 <_ZNSt13basic_filebufIcSt11char_traitsIcEE5closeEv@GLIBCXX_3.4>
    2056:	68 02 00 00 00       	push   $0x2
    205b:	e9 c0 ff ff ff       	jmp    2020 <_init+0x20>

0000000000002060 <_ZNSt14basic_ifstreamIcSt11char_traitsIcEED1Ev@plt>:
    2060:	ff 25 ca bf 00 00    	jmp    *0xbfca(%rip)        # e030 <_ZNSt14basic_ifstreamIcSt11char_traitsIcEED1Ev@GLIBCXX_3.4>
    2066:	68 03 00 00 00       	push   $0x3
    206b:	e9 b0 ff ff ff       	jmp    2020 <_init+0x20>

0000000000002070 <_ZSt9terminatev@plt>:
    2070:	ff 25 c2 bf 00 00    	jmp    *0xbfc2(%rip)        # e038 <_ZSt9terminatev@GLIBCXX_3.4>
    2076:	68 04 00 00 00       	push   $0x4
    207b:	e9 a0 ff ff ff       	jmp    2020 <_init+0x20>

0000000000002080 <_ZNKSt7__cxx1112basic_stringIcSt11char_traitsIcESaIcEE7compareEPKc@plt>:
    2080:	ff 25 ba bf 00 00    	jmp    *0xbfba(%rip)        # e040 <_ZNKSt7__cxx1112basic_stringIcSt11char_traitsIcESaIcEE7compareEPKc@GLIBCXX_3.4.21>
    2086:	68 05 00 00 00       	push   $0x5
    208b:	e9 90 ff ff ff       	jmp    2020 <_init+0x20>

0000000000002090 <strtoul@plt>:
    2090:	ff 25 b2 bf 00 00    	jmp    *0xbfb2(%rip)        # e048 <strtoul@GLIBC_2.2.5>
    2096:	68 06 00 00 00       	push   $0x6
    209b:	e9 80 ff ff ff       	jmp    2020 <_init+0x20>

00000000000020a0 <_ZNSt8ios_baseD2Ev@plt>:
    20a0:	ff 25 aa bf 00 00    	jmp    *0xbfaa(%rip)        # e050 <_ZNSt8ios_baseD2Ev@GLIBCXX_3.4>
    20a6:	68 07 00 00 00       	push   $0x7
    20ab:	e9 70 ff ff ff       	jmp    2020 <_init+0x20>

00000000000020b0 <__cxa_begin_catch@plt>:
    20b0:	ff 25 a2 bf 00 00    	jmp    *0xbfa2(%rip)        # e058 <__cxa_begin_catch@CXXABI_1.3>
    20b6:	68 08 00 00 00       	push   $0x8
    20bb:	e9 60 ff ff ff       	jmp    2020 <_init+0x20>

00000000000020c0 <strlen@plt>:
    20c0:	ff 25 9a bf 00 00    	jmp    *0xbf9a(%rip)        # e060 <strlen@GLIBC_2.2.5>
    20c6:	68 09 00 00 00       	push   $0x9
    20cb:	e9 50 ff ff ff       	jmp    2020 <_init+0x20>

00000000000020d0 <_ZSt20__throw_length_errorPKc@plt>:
    20d0:	ff 25 92 bf 00 00    	jmp    *0xbf92(%rip)        # e068 <_ZSt20__throw_length_errorPKc@GLIBCXX_3.4>
    20d6:	68 0a 00 00 00       	push   $0xa
    20db:	e9 40 ff ff ff       	jmp    2020 <_init+0x20>

00000000000020e0 <memset@plt>:
    20e0:	ff 25 8a bf 00 00    	jmp    *0xbf8a(%rip)        # e070 <memset@GLIBC_2.2.5>
    20e6:	68 0b 00 00 00       	push   $0xb
    20eb:	e9 30 ff ff ff       	jmp    2020 <_init+0x20>

00000000000020f0 <_ZNSirsERi@plt>:
    20f0:	ff 25 82 bf 00 00    	jmp    *0xbf82(%rip)        # e078 <_ZNSirsERi@GLIBCXX_3.4>
    20f6:	68 0c 00 00 00       	push   $0xc
    20fb:	e9 20 ff ff ff       	jmp    2020 <_init+0x20>

0000000000002100 <_ZNSi10_M_extractIdEERSiRT_@plt>:
    2100:	ff 25 7a bf 00 00    	jmp    *0xbf7a(%rip)        # e080 <_ZNSi10_M_extractIdEERSiRT_@GLIBCXX_3.4.9>
    2106:	68 0d 00 00 00       	push   $0xd
    210b:	e9 10 ff ff ff       	jmp    2020 <_init+0x20>

0000000000002110 <clock@plt>:
    2110:	ff 25 72 bf 00 00    	jmp    *0xbf72(%rip)        # e088 <clock@GLIBC_2.2.5>
    2116:	68 0e 00 00 00       	push   $0xe
    211b:	e9 00 ff ff ff       	jmp    2020 <_init+0x20>

0000000000002120 <_ZNSo9_M_insertImEERSoT_@plt>:
    2120:	ff 25 6a bf 00 00    	jmp    *0xbf6a(%rip)        # e090 <_ZNSo9_M_insertImEERSoT_@GLIBCXX_3.4.9>
    2126:	68 0f 00 00 00       	push   $0xf
    212b:	e9 f0 fe ff ff       	jmp    2020 <_init+0x20>

0000000000002130 <_ZNSt7__cxx1118basic_stringstreamIcSt11char_traitsIcESaIcEED1Ev@plt>:
    2130:	ff 25 62 bf 00 00    	jmp    *0xbf62(%rip)        # e098 <_ZNSt7__cxx1118basic_stringstreamIcSt11char_traitsIcESaIcEED1Ev@GLIBCXX_3.4.21>
    2136:	68 10 00 00 00       	push   $0x10
    213b:	e9 e0 fe ff ff       	jmp    2020 <_init+0x20>

0000000000002140 <_ZSt28__throw_bad_array_new_lengthv@plt>:
    2140:	ff 25 5a bf 00 00    	jmp    *0xbf5a(%rip)        # e0a0 <_ZSt28__throw_bad_array_new_lengthv@GLIBCXX_3.4.29>
    2146:	68 11 00 00 00       	push   $0x11
    214b:	e9 d0 fe ff ff       	jmp    2020 <_init+0x20>

0000000000002150 <memcpy@plt>:
    2150:	ff 25 52 bf 00 00    	jmp    *0xbf52(%rip)        # e0a8 <memcpy@GLIBC_2.14>
    2156:	68 12 00 00 00       	push   $0x12
    215b:	e9 c0 fe ff ff       	jmp    2020 <_init+0x20>

0000000000002160 <__cxa_atexit@plt>:
    2160:	ff 25 4a bf 00 00    	jmp    *0xbf4a(%rip)        # e0b0 <__cxa_atexit@GLIBC_2.2.5>
    2166:	68 13 00 00 00       	push   $0x13
    216b:	e9 b0 fe ff ff       	jmp    2020 <_init+0x20>

0000000000002170 <_ZNSt13basic_filebufIcSt11char_traitsIcEE4openEPKcSt13_Ios_Openmode@plt>:
    2170:	ff 25 42 bf 00 00    	jmp    *0xbf42(%rip)        # e0b8 <_ZNSt13basic_filebufIcSt11char_traitsIcEE4openEPKcSt13_Ios_Openmode@GLIBCXX_3.4>
    2176:	68 14 00 00 00       	push   $0x14
    217b:	e9 a0 fe ff ff       	jmp    2020 <_init+0x20>

0000000000002180 <_ZdlPv@plt>:
    2180:	ff 25 3a bf 00 00    	jmp    *0xbf3a(%rip)        # e0c0 <_ZdlPv@GLIBCXX_3.4>
    2186:	68 15 00 00 00       	push   $0x15
    218b:	e9 90 fe ff ff       	jmp    2020 <_init+0x20>

0000000000002190 <_ZStlsISt11char_traitsIcEERSt13basic_ostreamIcT_ES5_PKc@plt>:
    2190:	ff 25 32 bf 00 00    	jmp    *0xbf32(%rip)        # e0c8 <_ZStlsISt11char_traitsIcEERSt13basic_ostreamIcT_ES5_PKc@GLIBCXX_3.4>
    2196:	68 16 00 00 00       	push   $0x16
    219b:	e9 80 fe ff ff       	jmp    2020 <_init+0x20>

00000000000021a0 <_Znwm@plt>:
    21a0:	ff 25 2a bf 00 00    	jmp    *0xbf2a(%rip)        # e0d0 <_Znwm@GLIBCXX_3.4>
    21a6:	68 17 00 00 00       	push   $0x17
    21ab:	e9 70 fe ff ff       	jmp    2020 <_init+0x20>

00000000000021b0 <bcmp@plt>:
    21b0:	ff 25 22 bf 00 00    	jmp    *0xbf22(%rip)        # e0d8 <bcmp@GLIBC_2.2.5>
    21b6:	68 18 00 00 00       	push   $0x18
    21bb:	e9 60 fe ff ff       	jmp    2020 <_init+0x20>

00000000000021c0 <_ZNSt14basic_ofstreamIcSt11char_traitsIcEEC1EPKcSt13_Ios_Openmode@plt>:
    21c0:	ff 25 1a bf 00 00    	jmp    *0xbf1a(%rip)        # e0e0 <_ZNSt14basic_ofstreamIcSt11char_traitsIcEEC1EPKcSt13_Ios_Openmode@GLIBCXX_3.4>
    21c6:	68 19 00 00 00       	push   $0x19
    21cb:	e9 50 fe ff ff       	jmp    2020 <_init+0x20>

00000000000021d0 <_ZNSt14basic_ifstreamIcSt11char_traitsIcEEC1Ev@plt>:
    21d0:	ff 25 12 bf 00 00    	jmp    *0xbf12(%rip)        # e0e8 <_ZNSt14basic_ifstreamIcSt11char_traitsIcEEC1Ev@GLIBCXX_3.4>
    21d6:	68 1a 00 00 00       	push   $0x1a
    21db:	e9 40 fe ff ff       	jmp    2020 <_init+0x20>

00000000000021e0 <_ZSt16__ostream_insertIcSt11char_traitsIcEERSt13basic_ostreamIT_T0_ES6_PKS3_l@plt>:
    21e0:	ff 25 0a bf 00 00    	jmp    *0xbf0a(%rip)        # e0f0 <_ZSt16__ostream_insertIcSt11char_traitsIcEERSt13basic_ostreamIT_T0_ES6_PKS3_l@GLIBCXX_3.4.9>
    21e6:	68 1b 00 00 00       	push   $0x1b
    21eb:	e9 30 fe ff ff       	jmp    2020 <_init+0x20>

00000000000021f0 <_ZNKSt5ctypeIcE13_M_widen_initEv@plt>:
    21f0:	ff 25 02 bf 00 00    	jmp    *0xbf02(%rip)        # e0f8 <_ZNKSt5ctypeIcE13_M_widen_initEv@GLIBCXX_3.4.11>
    21f6:	68 1c 00 00 00       	push   $0x1c
    21fb:	e9 20 fe ff ff       	jmp    2020 <_init+0x20>

0000000000002200 <exit@plt>:
    2200:	ff 25 fa be 00 00    	jmp    *0xbefa(%rip)        # e100 <exit@GLIBC_2.2.5>
    2206:	68 1d 00 00 00       	push   $0x1d
    220b:	e9 10 fe ff ff       	jmp    2020 <_init+0x20>

0000000000002210 <_ZSt16__throw_bad_castv@plt>:
    2210:	ff 25 f2 be 00 00    	jmp    *0xbef2(%rip)        # e108 <_ZSt16__throw_bad_castv@GLIBCXX_3.4>
    2216:	68 1e 00 00 00       	push   $0x1e
    221b:	e9 00 fe ff ff       	jmp    2020 <_init+0x20>

0000000000002220 <_ZStrsIcSt11char_traitsIcESaIcEERSt13basic_istreamIT_T0_ES7_RNSt7__cxx1112basic_stringIS4_S5_T1_EE@plt>:
    2220:	ff 25 ea be 00 00    	jmp    *0xbeea(%rip)        # e110 <_ZStrsIcSt11char_traitsIcESaIcEERSt13basic_istreamIT_T0_ES7_RNSt7__cxx1112basic_stringIS4_S5_T1_EE@GLIBCXX_3.4.21>
    2226:	68 1f 00 00 00       	push   $0x1f
    222b:	e9 f0 fd ff ff       	jmp    2020 <_init+0x20>

0000000000002230 <_ZdaPv@plt>:
    2230:	ff 25 e2 be 00 00    	jmp    *0xbee2(%rip)        # e118 <_ZdaPv@GLIBCXX_3.4>
    2236:	68 20 00 00 00       	push   $0x20
    223b:	e9 e0 fd ff ff       	jmp    2020 <_init+0x20>

0000000000002240 <_ZNKSt7__cxx1112basic_stringIcSt11char_traitsIcESaIcEE4findEcm@plt>:
    2240:	ff 25 da be 00 00    	jmp    *0xbeda(%rip)        # e120 <_ZNKSt7__cxx1112basic_stringIcSt11char_traitsIcESaIcEE4findEcm@GLIBCXX_3.4.21>
    2246:	68 21 00 00 00       	push   $0x21
    224b:	e9 d0 fd ff ff       	jmp    2020 <_init+0x20>

0000000000002250 <_ZNSt6localeD1Ev@plt>:
    2250:	ff 25 d2 be 00 00    	jmp    *0xbed2(%rip)        # e128 <_ZNSt6localeD1Ev@GLIBCXX_3.4>
    2256:	68 22 00 00 00       	push   $0x22
    225b:	e9 c0 fd ff ff       	jmp    2020 <_init+0x20>

0000000000002260 <__cxa_rethrow@plt>:
    2260:	ff 25 ca be 00 00    	jmp    *0xbeca(%rip)        # e130 <__cxa_rethrow@CXXABI_1.3>
    2266:	68 23 00 00 00       	push   $0x23
    226b:	e9 b0 fd ff ff       	jmp    2020 <_init+0x20>

0000000000002270 <_ZNSt14basic_ofstreamIcSt11char_traitsIcEED1Ev@plt>:
    2270:	ff 25 c2 be 00 00    	jmp    *0xbec2(%rip)        # e138 <_ZNSt14basic_ofstreamIcSt11char_traitsIcEED1Ev@GLIBCXX_3.4>
    2276:	68 24 00 00 00       	push   $0x24
    227b:	e9 a0 fd ff ff       	jmp    2020 <_init+0x20>

0000000000002280 <_ZNSt8ios_base4InitC1Ev@plt>:
    2280:	ff 25 ba be 00 00    	jmp    *0xbeba(%rip)        # e140 <_ZNSt8ios_base4InitC1Ev@GLIBCXX_3.4>
    2286:	68 25 00 00 00       	push   $0x25
    228b:	e9 90 fd ff ff       	jmp    2020 <_init+0x20>

0000000000002290 <_ZNSt7__cxx1118basic_stringstreamIcSt11char_traitsIcESaIcEEC1ERKNS_12basic_stringIcS2_S3_EESt13_Ios_Openmode@plt>:
    2290:	ff 25 b2 be 00 00    	jmp    *0xbeb2(%rip)        # e148 <_ZNSt7__cxx1118basic_stringstreamIcSt11char_traitsIcESaIcEEC1ERKNS_12basic_stringIcS2_S3_EESt13_Ios_Openmode@GLIBCXX_3.4.21>
    2296:	68 26 00 00 00       	push   $0x26
    229b:	e9 80 fd ff ff       	jmp    2020 <_init+0x20>

00000000000022a0 <_ZNSo9_M_insertIdEERSoT_@plt>:
    22a0:	ff 25 aa be 00 00    	jmp    *0xbeaa(%rip)        # e150 <_ZNSo9_M_insertIdEERSoT_@GLIBCXX_3.4.9>
    22a6:	68 27 00 00 00       	push   $0x27
    22ab:	e9 70 fd ff ff       	jmp    2020 <_init+0x20>

00000000000022b0 <memmove@plt>:
    22b0:	ff 25 a2 be 00 00    	jmp    *0xbea2(%rip)        # e158 <memmove@GLIBC_2.2.5>
    22b6:	68 28 00 00 00       	push   $0x28
    22bb:	e9 60 fd ff ff       	jmp    2020 <_init+0x20>

00000000000022c0 <__cxa_end_catch@plt>:
    22c0:	ff 25 9a be 00 00    	jmp    *0xbe9a(%rip)        # e160 <__cxa_end_catch@CXXABI_1.3>
    22c6:	68 29 00 00 00       	push   $0x29
    22cb:	e9 50 fd ff ff       	jmp    2020 <_init+0x20>

00000000000022d0 <_ZNSt9basic_iosIcSt11char_traitsIcEE5clearESt12_Ios_Iostate@plt>:
    22d0:	ff 25 92 be 00 00    	jmp    *0xbe92(%rip)        # e168 <_ZNSt9basic_iosIcSt11char_traitsIcEE5clearESt12_Ios_Iostate@GLIBCXX_3.4>
    22d6:	68 2a 00 00 00       	push   $0x2a
    22db:	e9 40 fd ff ff       	jmp    2020 <_init+0x20>

00000000000022e0 <_ZNSt14basic_ofstreamIcSt11char_traitsIcEEC1Ev@plt>:
    22e0:	ff 25 8a be 00 00    	jmp    *0xbe8a(%rip)        # e170 <_ZNSt14basic_ofstreamIcSt11char_traitsIcEEC1Ev@GLIBCXX_3.4>
    22e6:	68 2b 00 00 00       	push   $0x2b
    22eb:	e9 30 fd ff ff       	jmp    2020 <_init+0x20>

00000000000022f0 <_ZNSolsEi@plt>:
    22f0:	ff 25 82 be 00 00    	jmp    *0xbe82(%rip)        # e178 <_ZNSolsEi@GLIBCXX_3.4>
    22f6:	68 2c 00 00 00       	push   $0x2c
    22fb:	e9 20 fd ff ff       	jmp    2020 <_init+0x20>

0000000000002300 <_ZNKSt7__cxx1112basic_stringIcSt11char_traitsIcESaIcEE4findEPKcmm@plt>:
    2300:	ff 25 7a be 00 00    	jmp    *0xbe7a(%rip)        # e180 <_ZNKSt7__cxx1112basic_stringIcSt11char_traitsIcESaIcEE4findEPKcmm@GLIBCXX_3.4.21>
    2306:	68 2d 00 00 00       	push   $0x2d
    230b:	e9 10 fd ff ff       	jmp    2020 <_init+0x20>

0000000000002310 <_Unwind_Resume@plt>:
    2310:	ff 25 72 be 00 00    	jmp    *0xbe72(%rip)        # e188 <_Unwind_Resume@GCC_3.0>
    2316:	68 2e 00 00 00       	push   $0x2e
    231b:	e9 00 fd ff ff       	jmp    2020 <_init+0x20>

0000000000002320 <_ZNSt7__cxx1112basic_stringIcSt11char_traitsIcESaIcEE9_M_createERmm@plt>:
    2320:	ff 25 6a be 00 00    	jmp    *0xbe6a(%rip)        # e190 <_ZNSt7__cxx1112basic_stringIcSt11char_traitsIcESaIcEE9_M_createERmm@GLIBCXX_3.4.21>
    2326:	68 2f 00 00 00       	push   $0x2f
    232b:	e9 f0 fc ff ff       	jmp    2020 <_init+0x20>

0000000000002330 <_ZSt7getlineIcSt11char_traitsIcESaIcEERSt13basic_istreamIT_T0_ES7_RNSt7__cxx1112basic_stringIS4_S5_T1_EES4_@plt>:
    2330:	ff 25 62 be 00 00    	jmp    *0xbe62(%rip)        # e198 <_ZSt7getlineIcSt11char_traitsIcESaIcEERSt13basic_istreamIT_T0_ES7_RNSt7__cxx1112basic_stringIS4_S5_T1_EES4_@GLIBCXX_3.4.21>
    2336:	68 30 00 00 00       	push   $0x30
    233b:	e9 e0 fc ff ff       	jmp    2020 <_init+0x20>

0000000000002340 <_ZNSi10_M_extractIfEERSiRT_@plt>:
    2340:	ff 25 5a be 00 00    	jmp    *0xbe5a(%rip)        # e1a0 <_ZNSi10_M_extractIfEERSiRT_@GLIBCXX_3.4.9>
    2346:	68 31 00 00 00       	push   $0x31
    234b:	e9 d0 fc ff ff       	jmp    2020 <_init+0x20>

Disassembly of section .plt.got:

0000000000002350 <__cxa_finalize@plt>:
    2350:	ff 25 62 bc 00 00    	jmp    *0xbc62(%rip)        # dfb8 <__cxa_finalize@GLIBC_2.2.5>
    2356:	66 90                	xchg   %ax,%ax

Disassembly of section .text:

0000000000002360 <_GLOBAL__sub_I_Mesh.cpp>:
    2360:	41 57                	push   %r15
    2362:	41 56                	push   %r14
    2364:	41 54                	push   %r12
    2366:	53                   	push   %rbx
    2367:	50                   	push   %rax
    2368:	4c 8d 35 61 be 00 00 	lea    0xbe61(%rip),%r14        # e1d0 <_ZStL8__ioinit>
    236f:	4c 89 f7             	mov    %r14,%rdi
    2372:	e8 09 ff ff ff       	call   2280 <_ZNSt8ios_base4InitC1Ev@plt>
    2377:	48 8b 3d 7a bc 00 00 	mov    0xbc7a(%rip),%rdi        # dff8 <_ZNSt8ios_base4InitD1Ev@GLIBCXX_3.4>
    237e:	48 8d 1d 2b be 00 00 	lea    0xbe2b(%rip),%rbx        # e1b0 <__dso_handle>
    2385:	4c 89 f6             	mov    %r14,%rsi
    2388:	48 89 da             	mov    %rbx,%rdx
    238b:	e8 d0 fd ff ff       	call   2160 <__cxa_atexit@plt>
    2390:	4c 8d 35 c9 be 00 00 	lea    0xbec9(%rip),%r14        # e260 <CUBE_VERT>
    2397:	0f 57 c0             	xorps  %xmm0,%xmm0
    239a:	0f 57 c9             	xorps  %xmm1,%xmm1
    239d:	0f 57 d2             	xorps  %xmm2,%xmm2
    23a0:	4c 89 f7             	mov    %r14,%rdi
    23a3:	e8 e8 03 00 00       	call   2790 <_ZN7CompFab10Vec3StructC1Eddd>
    23a8:	48 8d 3d c9 be 00 00 	lea    0xbec9(%rip),%rdi        # e278 <CUBE_VERT+0x18>
    23af:	f2 0f 10 05 a1 8c 00 	movsd  0x8ca1(%rip),%xmm0        # b058 <_IO_stdin_used+0x58>
    23b6:	00 
    23b7:	0f 57 c9             	xorps  %xmm1,%xmm1
    23ba:	0f 57 d2             	xorps  %xmm2,%xmm2
    23bd:	e8 ce 03 00 00       	call   2790 <_ZN7CompFab10Vec3StructC1Eddd>
    23c2:	48 8d 3d c7 be 00 00 	lea    0xbec7(%rip),%rdi        # e290 <CUBE_VERT+0x30>
    23c9:	0f 57 d2             	xorps  %xmm2,%xmm2
    23cc:	f2 0f 10 05 84 8c 00 	movsd  0x8c84(%rip),%xmm0        # b058 <_IO_stdin_used+0x58>
    23d3:	00 
    23d4:	0f 28 c8             	movaps %xmm0,%xmm1
    23d7:	e8 b4 03 00 00       	call   2790 <_ZN7CompFab10Vec3StructC1Eddd>
    23dc:	48 8d 3d c5 be 00 00 	lea    0xbec5(%rip),%rdi        # e2a8 <CUBE_VERT+0x48>
    23e3:	0f 57 c0             	xorps  %xmm0,%xmm0
    23e6:	0f 57 d2             	xorps  %xmm2,%xmm2
    23e9:	f2 0f 10 0d 67 8c 00 	movsd  0x8c67(%rip),%xmm1        # b058 <_IO_stdin_used+0x58>
    23f0:	00 
    23f1:	e8 9a 03 00 00       	call   2790 <_ZN7CompFab10Vec3StructC1Eddd>
    23f6:	48 8d 3d c3 be 00 00 	lea    0xbec3(%rip),%rdi        # e2c0 <CUBE_VERT+0x60>
    23fd:	0f 57 c0             	xorps  %xmm0,%xmm0
    2400:	0f 57 c9             	xorps  %xmm1,%xmm1
    2403:	f2 0f 10 15 4d 8c 00 	movsd  0x8c4d(%rip),%xmm2        # b058 <_IO_stdin_used+0x58>
    240a:	00 
    240b:	e8 80 03 00 00       	call   2790 <_ZN7CompFab10Vec3StructC1Eddd>
    2410:	48 8d 3d c1 be 00 00 	lea    0xbec1(%rip),%rdi        # e2d8 <CUBE_VERT+0x78>
    2417:	0f 57 c9             	xorps  %xmm1,%xmm1
    241a:	f2 0f 10 05 36 8c 00 	movsd  0x8c36(%rip),%xmm0        # b058 <_IO_stdin_used+0x58>
    2421:	00 
    2422:	0f 28 d0             	movaps %xmm0,%xmm2
    2425:	e8 66 03 00 00       	call   2790 <_ZN7CompFab10Vec3StructC1Eddd>
    242a:	48 8d 3d bf be 00 00 	lea    0xbebf(%rip),%rdi        # e2f0 <CUBE_VERT+0x90>
    2431:	f2 0f 10 05 1f 8c 00 	movsd  0x8c1f(%rip),%xmm0        # b058 <_IO_stdin_used+0x58>
    2438:	00 
    2439:	0f 28 c8             	movaps %xmm0,%xmm1
    243c:	0f 28 d0             	movaps %xmm0,%xmm2
    243f:	e8 4c 03 00 00       	call   2790 <_ZN7CompFab10Vec3StructC1Eddd>
    2444:	48 8d 3d bd be 00 00 	lea    0xbebd(%rip),%rdi        # e308 <CUBE_VERT+0xa8>
    244b:	0f 57 c0             	xorps  %xmm0,%xmm0
    244e:	f2 0f 10 0d 02 8c 00 	movsd  0x8c02(%rip),%xmm1        # b058 <_IO_stdin_used+0x58>
    2455:	00 
    2456:	0f 28 d1             	movaps %xmm1,%xmm2
    2459:	e8 32 03 00 00       	call   2790 <_ZN7CompFab10Vec3StructC1Eddd>
    245e:	4c 8d 3d bb be 00 00 	lea    0xbebb(%rip),%r15        # e320 <CUBE_TRIG>
    2465:	f2 0f 10 0d f3 8b 00 	movsd  0x8bf3(%rip),%xmm1        # b060 <_IO_stdin_used+0x60>
    246c:	00 
    246d:	0f 57 c0             	xorps  %xmm0,%xmm0
    2470:	4c 89 ff             	mov    %r15,%rdi
    2473:	f2 0f 10 15 dd 8b 00 	movsd  0x8bdd(%rip),%xmm2        # b058 <_IO_stdin_used+0x58>
    247a:	00 
    247b:	e8 90 03 00 00       	call   2810 <_ZN7CompFab11Vec3iStructC1Eddd>
    2480:	48 8d 3d a5 be 00 00 	lea    0xbea5(%rip),%rdi        # e32c <CUBE_TRIG+0xc>
    2487:	f2 0f 10 15 d9 8b 00 	movsd  0x8bd9(%rip),%xmm2        # b068 <_IO_stdin_used+0x68>
    248e:	00 
    248f:	f2 0f 10 05 c1 8b 00 	movsd  0x8bc1(%rip),%xmm0        # b058 <_IO_stdin_used+0x58>
    2496:	00 
    2497:	f2 0f 10 0d c1 8b 00 	movsd  0x8bc1(%rip),%xmm1        # b060 <_IO_stdin_used+0x60>
    249e:	00 
    249f:	e8 6c 03 00 00       	call   2810 <_ZN7CompFab11Vec3iStructC1Eddd>
    24a4:	48 8d 3d 8d be 00 00 	lea    0xbe8d(%rip),%rdi        # e338 <CUBE_TRIG+0x18>
    24ab:	f2 0f 10 05 bd 8b 00 	movsd  0x8bbd(%rip),%xmm0        # b070 <_IO_stdin_used+0x70>
    24b2:	00 
    24b3:	f2 0f 10 0d bd 8b 00 	movsd  0x8bbd(%rip),%xmm1        # b078 <_IO_stdin_used+0x78>
    24ba:	00 
    24bb:	0f 57 d2             	xorps  %xmm2,%xmm2
    24be:	e8 4d 03 00 00       	call   2810 <_ZN7CompFab11Vec3iStructC1Eddd>
    24c3:	48 8d 3d 7a be 00 00 	lea    0xbe7a(%rip),%rdi        # e344 <CUBE_TRIG+0x24>
    24ca:	0f 57 c9             	xorps  %xmm1,%xmm1
    24cd:	f2 0f 10 05 9b 8b 00 	movsd  0x8b9b(%rip),%xmm0        # b070 <_IO_stdin_used+0x70>
    24d4:	00 
    24d5:	f2 0f 10 15 7b 8b 00 	movsd  0x8b7b(%rip),%xmm2        # b058 <_IO_stdin_used+0x58>
    24dc:	00 
    24dd:	e8 2e 03 00 00       	call   2810 <_ZN7CompFab11Vec3iStructC1Eddd>
    24e2:	48 8d 3d 67 be 00 00 	lea    0xbe67(%rip),%rdi        # e350 <CUBE_TRIG+0x30>
    24e9:	f2 0f 10 05 8f 8b 00 	movsd  0x8b8f(%rip),%xmm0        # b080 <_IO_stdin_used+0x80>
    24f0:	00 
    24f1:	f2 0f 10 0d 77 8b 00 	movsd  0x8b77(%rip),%xmm1        # b070 <_IO_stdin_used+0x70>
    24f8:	00 
    24f9:	f2 0f 10 15 57 8b 00 	movsd  0x8b57(%rip),%xmm2        # b058 <_IO_stdin_used+0x58>
    2500:	00 
    2501:	e8 0a 03 00 00       	call   2810 <_ZN7CompFab11Vec3iStructC1Eddd>
    2506:	48 8d 3d 4f be 00 00 	lea    0xbe4f(%rip),%rdi        # e35c <CUBE_TRIG+0x3c>
    250d:	f2 0f 10 05 43 8b 00 	movsd  0x8b43(%rip),%xmm0        # b058 <_IO_stdin_used+0x58>
    2514:	00 
    2515:	f2 0f 10 0d 4b 8b 00 	movsd  0x8b4b(%rip),%xmm1        # b068 <_IO_stdin_used+0x68>
    251c:	00 
    251d:	f2 0f 10 15 5b 8b 00 	movsd  0x8b5b(%rip),%xmm2        # b080 <_IO_stdin_used+0x80>
    2524:	00 
    2525:	e8 e6 02 00 00       	call   2810 <_ZN7CompFab11Vec3iStructC1Eddd>
    252a:	48 8d 3d 37 be 00 00 	lea    0xbe37(%rip),%rdi        # e368 <CUBE_TRIG+0x48>
    2531:	f2 0f 10 05 27 8b 00 	movsd  0x8b27(%rip),%xmm0        # b060 <_IO_stdin_used+0x60>
    2538:	00 
    2539:	f2 0f 10 0d 3f 8b 00 	movsd  0x8b3f(%rip),%xmm1        # b080 <_IO_stdin_used+0x80>
    2540:	00 
    2541:	f2 0f 10 15 1f 8b 00 	movsd  0x8b1f(%rip),%xmm2        # b068 <_IO_stdin_used+0x68>
    2548:	00 
    2549:	e8 c2 02 00 00       	call   2810 <_ZN7CompFab11Vec3iStructC1Eddd>
    254e:	48 8d 3d 1f be 00 00 	lea    0xbe1f(%rip),%rdi        # e374 <CUBE_TRIG+0x54>
    2555:	f2 0f 10 0d 2b 8b 00 	movsd  0x8b2b(%rip),%xmm1        # b088 <_IO_stdin_used+0x88>
    255c:	00 
    255d:	f2 0f 10 05 fb 8a 00 	movsd  0x8afb(%rip),%xmm0        # b060 <_IO_stdin_used+0x60>
    2564:	00 
    2565:	f2 0f 10 15 13 8b 00 	movsd  0x8b13(%rip),%xmm2        # b080 <_IO_stdin_used+0x80>
    256c:	00 
    256d:	e8 9e 02 00 00       	call   2810 <_ZN7CompFab11Vec3iStructC1Eddd>
    2572:	48 8d 3d 07 be 00 00 	lea    0xbe07(%rip),%rdi        # e380 <CUBE_TRIG+0x60>
    2579:	0f 57 d2             	xorps  %xmm2,%xmm2
    257c:	f2 0f 10 05 f4 8a 00 	movsd  0x8af4(%rip),%xmm0        # b078 <_IO_stdin_used+0x78>
    2583:	00 
    2584:	f2 0f 10 0d d4 8a 00 	movsd  0x8ad4(%rip),%xmm1        # b060 <_IO_stdin_used+0x60>
    258b:	00 
    258c:	e8 7f 02 00 00       	call   2810 <_ZN7CompFab11Vec3iStructC1Eddd>
    2591:	48 8d 3d f4 bd 00 00 	lea    0xbdf4(%rip),%rdi        # e38c <CUBE_TRIG+0x6c>
    2598:	f2 0f 10 05 d8 8a 00 	movsd  0x8ad8(%rip),%xmm0        # b078 <_IO_stdin_used+0x78>
    259f:	00 
    25a0:	f2 0f 10 0d e0 8a 00 	movsd  0x8ae0(%rip),%xmm1        # b088 <_IO_stdin_used+0x88>
    25a7:	00 
    25a8:	f2 0f 10 15 b0 8a 00 	movsd  0x8ab0(%rip),%xmm2        # b060 <_IO_stdin_used+0x60>
    25af:	00 
    25b0:	e8 5b 02 00 00       	call   2810 <_ZN7CompFab11Vec3iStructC1Eddd>
    25b5:	48 8d 3d dc bd 00 00 	lea    0xbddc(%rip),%rdi        # e398 <CUBE_TRIG+0x78>
    25bc:	f2 0f 10 05 c4 8a 00 	movsd  0x8ac4(%rip),%xmm0        # b088 <_IO_stdin_used+0x88>
    25c3:	00 
    25c4:	f2 0f 10 0d ac 8a 00 	movsd  0x8aac(%rip),%xmm1        # b078 <_IO_stdin_used+0x78>
    25cb:	00 
    25cc:	f2 0f 10 15 9c 8a 00 	movsd  0x8a9c(%rip),%xmm2        # b070 <_IO_stdin_used+0x70>
    25d3:	00 
    25d4:	e8 37 02 00 00       	call   2810 <_ZN7CompFab11Vec3iStructC1Eddd>
    25d9:	48 8d 3d c4 bd 00 00 	lea    0xbdc4(%rip),%rdi        # e3a4 <CUBE_TRIG+0x84>
    25e0:	f2 0f 10 05 a0 8a 00 	movsd  0x8aa0(%rip),%xmm0        # b088 <_IO_stdin_used+0x88>
    25e7:	00 
    25e8:	f2 0f 10 0d 80 8a 00 	movsd  0x8a80(%rip),%xmm1        # b070 <_IO_stdin_used+0x70>
    25ef:	00 
    25f0:	f2 0f 10 15 88 8a 00 	movsd  0x8a88(%rip),%xmm2        # b080 <_IO_stdin_used+0x80>
    25f7:	00 
    25f8:	e8 13 02 00 00       	call   2810 <_ZN7CompFab11Vec3iStructC1Eddd>
    25fd:	4c 8d 25 d4 bb 00 00 	lea    0xbbd4(%rip),%r12        # e1d8 <UNIT_CUBE>
    2604:	4c 89 e7             	mov    %r12,%rdi
    2607:	4c 89 f6             	mov    %r14,%rsi
    260a:	4c 89 fa             	mov    %r15,%rdx
    260d:	e8 0e 0f 00 00       	call   3520 <_ZN4MeshC1EPKN7CompFab10Vec3StructEPKNS0_11Vec3iStructE>
    2612:	48 8d 3d b7 52 00 00 	lea    0x52b7(%rip),%rdi        # 78d0 <_ZN4MeshD2Ev>
    2619:	4c 89 e6             	mov    %r12,%rsi
    261c:	48 89 da             	mov    %rbx,%rdx
    261f:	48 83 c4 08          	add    $0x8,%rsp
    2623:	5b                   	pop    %rbx
    2624:	41 5c                	pop    %r12
    2626:	41 5e                	pop    %r14
    2628:	41 5f                	pop    %r15
    262a:	e9 31 fb ff ff       	jmp    2160 <__cxa_atexit@plt>
    262f:	90                   	nop

0000000000002630 <_GLOBAL__sub_I_main.cpp>:
    2630:	41 56                	push   %r14
    2632:	53                   	push   %rbx
    2633:	50                   	push   %rax
    2634:	48 8d 1d 75 bd 00 00 	lea    0xbd75(%rip),%rbx        # e3b0 <_ZStL8__ioinit>
    263b:	48 89 df             	mov    %rbx,%rdi
    263e:	e8 3d fc ff ff       	call   2280 <_ZNSt8ios_base4InitC1Ev@plt>
    2643:	48 8b 3d ae b9 00 00 	mov    0xb9ae(%rip),%rdi        # dff8 <_ZNSt8ios_base4InitD1Ev@GLIBCXX_3.4>
    264a:	4c 8d 35 5f bb 00 00 	lea    0xbb5f(%rip),%r14        # e1b0 <__dso_handle>
    2651:	48 89 de             	mov    %rbx,%rsi
    2654:	4c 89 f2             	mov    %r14,%rdx
    2657:	e8 04 fb ff ff       	call   2160 <__cxa_atexit@plt>
    265c:	0f 57 c0             	xorps  %xmm0,%xmm0
    265f:	0f 11 05 52 bd 00 00 	movups %xmm0,0xbd52(%rip)        # e3b8 <g_triangleList>
    2666:	48 c7 05 57 bd 00 00 	movq   $0x0,0xbd57(%rip)        # e3c8 <g_triangleList+0x10>
    266d:	00 00 00 00 
    2671:	48 8d 35 40 bd 00 00 	lea    0xbd40(%rip),%rsi        # e3b8 <g_triangleList>
    2678:	48 8d 3d 91 7c 00 00 	lea    0x7c91(%rip),%rdi        # a310 <_ZNSt6vectorIN7CompFab14TriangleStructESaIS1_EED2Ev>
    267f:	4c 89 f2             	mov    %r14,%rdx
    2682:	48 83 c4 08          	add    $0x8,%rsp
    2686:	5b                   	pop    %rbx
    2687:	41 5e                	pop    %r14
    2689:	e9 d2 fa ff ff       	jmp    2160 <__cxa_atexit@plt>
    268e:	66 90                	xchg   %ax,%ax

0000000000002690 <_start>:
    2690:	f3 0f 1e fa          	endbr64 
    2694:	31 ed                	xor    %ebp,%ebp
    2696:	49 89 d1             	mov    %rdx,%r9
    2699:	5e                   	pop    %rsi
    269a:	48 89 e2             	mov    %rsp,%rdx
    269d:	48 83 e4 f0          	and    $0xfffffffffffffff0,%rsp
    26a1:	50                   	push   %rax
    26a2:	54                   	push   %rsp
    26a3:	45 31 c0             	xor    %r8d,%r8d
    26a6:	31 c9                	xor    %ecx,%ecx
    26a8:	48 8d 3d c1 64 00 00 	lea    0x64c1(%rip),%rdi        # 8b70 <main>
    26af:	ff 15 13 b9 00 00    	call   *0xb913(%rip)        # dfc8 <__libc_start_main@GLIBC_2.34>
    26b5:	f4                   	hlt    
    26b6:	66 2e 0f 1f 84 00 00 	cs nopw 0x0(%rax,%rax,1)
    26bd:	00 00 00 

00000000000026c0 <deregister_tm_clones>:
    26c0:	48 8d 3d f9 ba 00 00 	lea    0xbaf9(%rip),%rdi        # e1c0 <__TMC_END__>
    26c7:	48 8d 05 f2 ba 00 00 	lea    0xbaf2(%rip),%rax        # e1c0 <__TMC_END__>
    26ce:	48 39 f8             	cmp    %rdi,%rax
    26d1:	74 15                	je     26e8 <deregister_tm_clones+0x28>
    26d3:	48 8b 05 fe b8 00 00 	mov    0xb8fe(%rip),%rax        # dfd8 <_ITM_deregisterTMCloneTable@Base>
    26da:	48 85 c0             	test   %rax,%rax
    26dd:	74 09                	je     26e8 <deregister_tm_clones+0x28>
    26df:	ff e0                	jmp    *%rax
    26e1:	0f 1f 80 00 00 00 00 	nopl   0x0(%rax)
    26e8:	c3                   	ret    
    26e9:	0f 1f 80 00 00 00 00 	nopl   0x0(%rax)

00000000000026f0 <register_tm_clones>:
    26f0:	48 8d 3d c9 ba 00 00 	lea    0xbac9(%rip),%rdi        # e1c0 <__TMC_END__>
    26f7:	48 8d 35 c2 ba 00 00 	lea    0xbac2(%rip),%rsi        # e1c0 <__TMC_END__>
    26fe:	48 29 fe             	sub    %rdi,%rsi
    2701:	48 89 f0             	mov    %rsi,%rax
    2704:	48 c1 ee 3f          	shr    $0x3f,%rsi
    2708:	48 c1 f8 03          	sar    $0x3,%rax
    270c:	48 01 c6             	add    %rax,%rsi
    270f:	48 d1 fe             	sar    %rsi
    2712:	74 14                	je     2728 <register_tm_clones+0x38>
    2714:	48 8b 05 cd b8 00 00 	mov    0xb8cd(%rip),%rax        # dfe8 <_ITM_registerTMCloneTable@Base>
    271b:	48 85 c0             	test   %rax,%rax
    271e:	74 08                	je     2728 <register_tm_clones+0x38>
    2720:	ff e0                	jmp    *%rax
    2722:	66 0f 1f 44 00 00    	nopw   0x0(%rax,%rax,1)
    2728:	c3                   	ret    
    2729:	0f 1f 80 00 00 00 00 	nopl   0x0(%rax)

0000000000002730 <__do_global_dtors_aux>:
    2730:	f3 0f 1e fa          	endbr64 
    2734:	80 3d 85 ba 00 00 00 	cmpb   $0x0,0xba85(%rip)        # e1c0 <__TMC_END__>
    273b:	75 2b                	jne    2768 <__do_global_dtors_aux+0x38>
    273d:	55                   	push   %rbp
    273e:	48 83 3d 72 b8 00 00 	cmpq   $0x0,0xb872(%rip)        # dfb8 <__cxa_finalize@GLIBC_2.2.5>
    2745:	00 
    2746:	48 89 e5             	mov    %rsp,%rbp
    2749:	74 0c                	je     2757 <__do_global_dtors_aux+0x27>
    274b:	48 8b 3d 5e ba 00 00 	mov    0xba5e(%rip),%rdi        # e1b0 <__dso_handle>
    2752:	e8 f9 fb ff ff       	call   2350 <__cxa_finalize@plt>
    2757:	e8 64 ff ff ff       	call   26c0 <deregister_tm_clones>
    275c:	c6 05 5d ba 00 00 01 	movb   $0x1,0xba5d(%rip)        # e1c0 <__TMC_END__>
    2763:	5d                   	pop    %rbp
    2764:	c3                   	ret    
    2765:	0f 1f 00             	nopl   (%rax)
    2768:	c3                   	ret    
    2769:	0f 1f 80 00 00 00 00 	nopl   0x0(%rax)

0000000000002770 <frame_dummy>:
    2770:	f3 0f 1e fa          	endbr64 
    2774:	e9 77 ff ff ff       	jmp    26f0 <register_tm_clones>
    2779:	0f 1f 80 00 00 00 00 	nopl   0x0(%rax)

0000000000002780 <_ZN7CompFab10Vec3StructC1Ev>:
    2780:	0f 57 c0             	xorps  %xmm0,%xmm0
    2783:	0f 11 07             	movups %xmm0,(%rdi)
    2786:	48 c7 47 10 00 00 00 	movq   $0x0,0x10(%rdi)
    278d:	00 
    278e:	c3                   	ret    
    278f:	90                   	nop

0000000000002790 <_ZN7CompFab10Vec3StructC1Eddd>:
    2790:	f2 0f 11 07          	movsd  %xmm0,(%rdi)
    2794:	f2 0f 11 4f 08       	movsd  %xmm1,0x8(%rdi)
    2799:	f2 0f 11 57 10       	movsd  %xmm2,0x10(%rdi)
    279e:	c3                   	ret    
    279f:	90                   	nop

00000000000027a0 <_ZN7CompFab10Vec3Struct9normalizeEv>:
    27a0:	66 0f 10 07          	movupd (%rdi),%xmm0
    27a4:	66 0f 28 c8          	movapd %xmm0,%xmm1
    27a8:	66 0f 59 c8          	mulpd  %xmm0,%xmm1
    27ac:	66 0f 15 c9          	unpckhpd %xmm1,%xmm1
    27b0:	66 0f 28 d0          	movapd %xmm0,%xmm2
    27b4:	f2 0f 59 d0          	mulsd  %xmm0,%xmm2
    27b8:	f2 0f 58 d1          	addsd  %xmm1,%xmm2
    27bc:	f2 0f 10 4f 10       	movsd  0x10(%rdi),%xmm1
    27c1:	66 0f 28 d9          	movapd %xmm1,%xmm3
    27c5:	f2 0f 59 d9          	mulsd  %xmm1,%xmm3
    27c9:	f2 0f 58 da          	addsd  %xmm2,%xmm3
    27cd:	0f 57 d2             	xorps  %xmm2,%xmm2
    27d0:	f2 0f 51 d3          	sqrtsd %xmm3,%xmm2
    27d4:	66 0f 2e 15 2c 88 00 	ucomisd 0x882c(%rip),%xmm2        # b008 <_IO_stdin_used+0x8>
    27db:	00 
    27dc:	76 15                	jbe    27f3 <_ZN7CompFab10Vec3Struct9normalizeEv+0x53>
    27de:	f2 0f 5e ca          	divsd  %xmm2,%xmm1
    27e2:	66 0f 14 d2          	unpcklpd %xmm2,%xmm2
    27e6:	66 0f 5e c2          	divpd  %xmm2,%xmm0
    27ea:	66 0f 11 07          	movupd %xmm0,(%rdi)
    27ee:	f2 0f 11 4f 10       	movsd  %xmm1,0x10(%rdi)
    27f3:	c3                   	ret    
    27f4:	66 66 66 2e 0f 1f 84 	data16 data16 cs nopw 0x0(%rax,%rax,1)
    27fb:	00 00 00 00 00 

0000000000002800 <_ZN7CompFab11Vec3iStructC1Ev>:
    2800:	c7 47 08 00 00 00 00 	movl   $0x0,0x8(%rdi)
    2807:	48 c7 07 00 00 00 00 	movq   $0x0,(%rdi)
    280e:	c3                   	ret    
    280f:	90                   	nop

0000000000002810 <_ZN7CompFab11Vec3iStructC1Eddd>:
    2810:	66 0f 14 c1          	unpcklpd %xmm1,%xmm0
    2814:	66 0f e6 c0          	cvttpd2dq %xmm0,%xmm0
    2818:	66 0f 13 07          	movlpd %xmm0,(%rdi)
    281c:	f2 0f 2c c2          	cvttsd2si %xmm2,%eax
    2820:	89 47 08             	mov    %eax,0x8(%rdi)
    2823:	c3                   	ret    
    2824:	66 66 66 2e 0f 1f 84 	data16 data16 cs nopw 0x0(%rax,%rax,1)
    282b:	00 00 00 00 00 

0000000000002830 <_ZN7CompFab11Vec2fStructC1Ev>:
    2830:	0f 57 c0             	xorps  %xmm0,%xmm0
    2833:	0f 13 07             	movlps %xmm0,(%rdi)
    2836:	c3                   	ret    
    2837:	66 0f 1f 84 00 00 00 	nopw   0x0(%rax,%rax,1)
    283e:	00 00 

0000000000002840 <_ZN7CompFab11Vec2fStructC1Edd>:
    2840:	66 0f 14 c1          	unpcklpd %xmm1,%xmm0
    2844:	66 0f 5a c0          	cvtpd2ps %xmm0,%xmm0
    2848:	66 0f 13 07          	movlpd %xmm0,(%rdi)
    284c:	c3                   	ret    
    284d:	0f 1f 00             	nopl   (%rax)

0000000000002850 <_ZN7CompFab9RayStructC1Ev>:
    2850:	0f 57 c0             	xorps  %xmm0,%xmm0
    2853:	0f 11 07             	movups %xmm0,(%rdi)
    2856:	48 c7 47 10 00 00 00 	movq   $0x0,0x10(%rdi)
    285d:	00 
    285e:	48 b8 00 00 00 00 00 	movabs $0x3ff0000000000000,%rax
    2865:	00 f0 3f 
    2868:	48 89 47 18          	mov    %rax,0x18(%rdi)
    286c:	0f 11 47 20          	movups %xmm0,0x20(%rdi)
    2870:	c3                   	ret    
    2871:	66 66 66 66 66 66 2e 	data16 data16 data16 data16 data16 cs nopw 0x0(%rax,%rax,1)
    2878:	0f 1f 84 00 00 00 00 
    287f:	00 

0000000000002880 <_ZN7CompFab9RayStructC1ERNS_10Vec3StructES2_>:
    2880:	0f 57 c0             	xorps  %xmm0,%xmm0
    2883:	0f 11 47 20          	movups %xmm0,0x20(%rdi)
    2887:	0f 11 47 10          	movups %xmm0,0x10(%rdi)
    288b:	0f 11 07             	movups %xmm0,(%rdi)
    288e:	0f 10 06             	movups (%rsi),%xmm0
    2891:	0f 11 07             	movups %xmm0,(%rdi)
    2894:	48 8b 46 10          	mov    0x10(%rsi),%rax
    2898:	48 89 47 10          	mov    %rax,0x10(%rdi)
    289c:	0f 10 02             	movups (%rdx),%xmm0
    289f:	0f 11 47 18          	movups %xmm0,0x18(%rdi)
    28a3:	48 8b 42 10          	mov    0x10(%rdx),%rax
    28a7:	48 89 47 28          	mov    %rax,0x28(%rdi)
    28ab:	c3                   	ret    
    28ac:	0f 1f 40 00          	nopl   0x0(%rax)

00000000000028b0 <_ZN7CompFab14TriangleStructC1ERNS_10Vec3StructES2_S2_>:
    28b0:	0f 57 c0             	xorps  %xmm0,%xmm0
    28b3:	0f 11 47 30          	movups %xmm0,0x30(%rdi)
    28b7:	0f 11 47 20          	movups %xmm0,0x20(%rdi)
    28bb:	0f 11 47 10          	movups %xmm0,0x10(%rdi)
    28bf:	0f 11 07             	movups %xmm0,(%rdi)
    28c2:	48 c7 47 40 00 00 00 	movq   $0x0,0x40(%rdi)
    28c9:	00 
    28ca:	48 8b 46 10          	mov    0x10(%rsi),%rax
    28ce:	48 89 47 10          	mov    %rax,0x10(%rdi)
    28d2:	0f 10 06             	movups (%rsi),%xmm0
    28d5:	0f 11 07             	movups %xmm0,(%rdi)
    28d8:	0f 10 02             	movups (%rdx),%xmm0
    28db:	0f 11 47 18          	movups %xmm0,0x18(%rdi)
    28df:	48 8b 42 10          	mov    0x10(%rdx),%rax
    28e3:	48 89 47 28          	mov    %rax,0x28(%rdi)
    28e7:	0f 10 01             	movups (%rcx),%xmm0
    28ea:	0f 11 47 30          	movups %xmm0,0x30(%rdi)
    28ee:	48 8b 41 10          	mov    0x10(%rcx),%rax
    28f2:	48 89 47 40          	mov    %rax,0x40(%rdi)
    28f6:	c3                   	ret    
    28f7:	66 0f 1f 84 00 00 00 	nopw   0x0(%rax,%rax,1)
    28fe:	00 00 

0000000000002900 <_ZN7CompFabmiERKNS_10Vec3StructES2_>:
    2900:	48 89 f8             	mov    %rdi,%rax
    2903:	66 0f 10 06          	movupd (%rsi),%xmm0
    2907:	66 0f 10 0a          	movupd (%rdx),%xmm1
    290b:	66 0f 5c c1          	subpd  %xmm1,%xmm0
    290f:	66 0f 11 07          	movupd %xmm0,(%rdi)
    2913:	f2 0f 10 46 10       	movsd  0x10(%rsi),%xmm0
    2918:	f2 0f 5c 42 10       	subsd  0x10(%rdx),%xmm0
    291d:	f2 0f 11 47 10       	movsd  %xmm0,0x10(%rdi)
    2922:	c3                   	ret    
    2923:	66 66 66 66 2e 0f 1f 	data16 data16 data16 cs nopw 0x0(%rax,%rax,1)
    292a:	84 00 00 00 00 00 

0000000000002930 <_ZN7CompFabplERKNS_10Vec3StructES2_>:
    2930:	48 89 f8             	mov    %rdi,%rax
    2933:	66 0f 10 06          	movupd (%rsi),%xmm0
    2937:	66 0f 10 0a          	movupd (%rdx),%xmm1
    293b:	66 0f 58 c8          	addpd  %xmm0,%xmm1
    293f:	66 0f 11 0f          	movupd %xmm1,(%rdi)
    2943:	f2 0f 10 46 10       	movsd  0x10(%rsi),%xmm0
    2948:	f2 0f 58 42 10       	addsd  0x10(%rdx),%xmm0
    294d:	f2 0f 11 47 10       	movsd  %xmm0,0x10(%rdi)
    2952:	c3                   	ret    
    2953:	66 66 66 66 2e 0f 1f 	data16 data16 data16 cs nopw 0x0(%rax,%rax,1)
    295a:	84 00 00 00 00 00 

0000000000002960 <_ZN7CompFabrmERKNS_10Vec3StructES2_>:
    2960:	48 89 f8             	mov    %rdi,%rax
    2963:	f2 0f 10 02          	movsd  (%rdx),%xmm0
    2967:	f2 0f 10 0e          	movsd  (%rsi),%xmm1
    296b:	66 0f 10 56 08       	movupd 0x8(%rsi),%xmm2
    2970:	66 0f 10 5a 08       	movupd 0x8(%rdx),%xmm3
    2975:	66 0f 28 e2          	movapd %xmm2,%xmm4
    2979:	66 0f c6 e1 01       	shufpd $0x1,%xmm1,%xmm4
    297e:	66 0f 59 e3          	mulpd  %xmm3,%xmm4
    2982:	f2 0f 59 cb          	mulsd  %xmm3,%xmm1
    2986:	66 0f c6 d8 01       	shufpd $0x1,%xmm0,%xmm3
    298b:	66 0f 59 da          	mulpd  %xmm2,%xmm3
    298f:	66 0f 5c dc          	subpd  %xmm4,%xmm3
    2993:	66 0f 11 1f          	movupd %xmm3,(%rdi)
    2997:	f2 0f 59 c2          	mulsd  %xmm2,%xmm0
    299b:	f2 0f 5c c8          	subsd  %xmm0,%xmm1
    299f:	f2 0f 11 4f 10       	movsd  %xmm1,0x10(%rdi)
    29a4:	c3                   	ret    
    29a5:	66 66 2e 0f 1f 84 00 	data16 cs nopw 0x0(%rax,%rax,1)
    29ac:	00 00 00 00 

00000000000029b0 <_ZN7CompFabmlERKNS_10Vec3StructES2_>:
    29b0:	f2 0f 10 0f          	movsd  (%rdi),%xmm1
    29b4:	f2 0f 10 47 08       	movsd  0x8(%rdi),%xmm0
    29b9:	f2 0f 59 46 08       	mulsd  0x8(%rsi),%xmm0
    29be:	f2 0f 59 0e          	mulsd  (%rsi),%xmm1
    29c2:	f2 0f 58 c8          	addsd  %xmm0,%xmm1
    29c6:	f2 0f 10 47 10       	movsd  0x10(%rdi),%xmm0
    29cb:	f2 0f 59 46 10       	mulsd  0x10(%rsi),%xmm0
    29d0:	f2 0f 58 c1          	addsd  %xmm1,%xmm0
    29d4:	c3                   	ret    
    29d5:	66 66 2e 0f 1f 84 00 	data16 cs nopw 0x0(%rax,%rax,1)
    29dc:	00 00 00 00 

00000000000029e0 <_ZN7CompFab15VoxelGridStructC1ENS_10Vec3StructEjjjd>:
    29e0:	41 56                	push   %r14
    29e2:	53                   	push   %rbx
    29e3:	50                   	push   %rax
    29e4:	89 d3                	mov    %edx,%ebx
    29e6:	49 89 fe             	mov    %rdi,%r14
    29e9:	48 8b 44 24 30       	mov    0x30(%rsp),%rax
    29ee:	48 89 47 30          	mov    %rax,0x30(%rdi)
    29f2:	0f 28 4c 24 20       	movaps 0x20(%rsp),%xmm1
    29f7:	0f 11 4f 20          	movups %xmm1,0x20(%rdi)
    29fb:	89 77 08             	mov    %esi,0x8(%rdi)
    29fe:	89 57 0c             	mov    %edx,0xc(%rdi)
    2a01:	89 4f 10             	mov    %ecx,0x10(%rdi)
    2a04:	0f af de             	imul   %esi,%ebx
    2a07:	0f af d9             	imul   %ecx,%ebx
    2a0a:	89 5f 14             	mov    %ebx,0x14(%rdi)
    2a0d:	f2 0f 11 47 18       	movsd  %xmm0,0x18(%rdi)
    2a12:	48 89 df             	mov    %rbx,%rdi
    2a15:	e8 16 f6 ff ff       	call   2030 <_Znam@plt>
    2a1a:	49 89 06             	mov    %rax,(%r14)
    2a1d:	85 db                	test   %ebx,%ebx
    2a1f:	74 14                	je     2a35 <_ZN7CompFab15VoxelGridStructC1ENS_10Vec3StructEjjjd+0x55>
    2a21:	48 89 c7             	mov    %rax,%rdi
    2a24:	31 f6                	xor    %esi,%esi
    2a26:	48 89 da             	mov    %rbx,%rdx
    2a29:	48 83 c4 08          	add    $0x8,%rsp
    2a2d:	5b                   	pop    %rbx
    2a2e:	41 5e                	pop    %r14
    2a30:	e9 ab f6 ff ff       	jmp    20e0 <memset@plt>
    2a35:	48 83 c4 08          	add    $0x8,%rsp
    2a39:	5b                   	pop    %rbx
    2a3a:	41 5e                	pop    %r14
    2a3c:	c3                   	ret    
    2a3d:	0f 1f 00             	nopl   (%rax)

0000000000002a40 <_ZN7CompFab15VoxelGridStructD1Ev>:
    2a40:	48 8b 3f             	mov    (%rdi),%rdi
    2a43:	48 85 ff             	test   %rdi,%rdi
    2a46:	0f 85 e4 f7 ff ff    	jne    2230 <_ZdaPv@plt>
    2a4c:	c3                   	ret    
    2a4d:	0f 1f 00             	nopl   (%rax)

0000000000002a50 <_Z7ptInBoxRKN7CompFab10Vec3StructES0_S2_>:
    2a50:	f2 0f 10 06          	movsd  (%rsi),%xmm0
    2a54:	f2 0f 10 0f          	movsd  (%rdi),%xmm1
    2a58:	31 c0                	xor    %eax,%eax
    2a5a:	66 0f 2e c8          	ucomisd %xmm0,%xmm1
    2a5e:	77 47                	ja     2aa7 <_Z7ptInBoxRKN7CompFab10Vec3StructES0_S2_+0x57>
    2a60:	66 0f 2e 44 24 08    	ucomisd 0x8(%rsp),%xmm0
    2a66:	77 3f                	ja     2aa7 <_Z7ptInBoxRKN7CompFab10Vec3StructES0_S2_+0x57>
    2a68:	f2 0f 10 46 08       	movsd  0x8(%rsi),%xmm0
    2a6d:	f2 0f 10 4f 08       	movsd  0x8(%rdi),%xmm1
    2a72:	31 c0                	xor    %eax,%eax
    2a74:	66 0f 2e c8          	ucomisd %xmm0,%xmm1
    2a78:	77 2d                	ja     2aa7 <_Z7ptInBoxRKN7CompFab10Vec3StructES0_S2_+0x57>
    2a7a:	48 8d 4c 24 08       	lea    0x8(%rsp),%rcx
    2a7f:	66 0f 2e 41 08       	ucomisd 0x8(%rcx),%xmm0
    2a84:	77 21                	ja     2aa7 <_Z7ptInBoxRKN7CompFab10Vec3StructES0_S2_+0x57>
    2a86:	f2 0f 10 46 10       	movsd  0x10(%rsi),%xmm0
    2a8b:	f2 0f 10 49 10       	movsd  0x10(%rcx),%xmm1
    2a90:	66 0f c2 c8 05       	cmpnltpd %xmm0,%xmm1
    2a95:	f2 0f 10 57 10       	movsd  0x10(%rdi),%xmm2
    2a9a:	66 0f c2 c2 05       	cmpnltpd %xmm2,%xmm0
    2a9f:	66 0f 54 c1          	andpd  %xmm1,%xmm0
    2aa3:	66 0f 7e c0          	movd   %xmm0,%eax
    2aa7:	24 01                	and    $0x1,%al
    2aa9:	c3                   	ret    
    2aaa:	66 0f 1f 44 00 00    	nopw   0x0(%rax,%rax,1)

0000000000002ab0 <_Z8makeCubeR4MeshRKN7CompFab10Vec3StructES2_>:
    2ab0:	41 57                	push   %r15
    2ab2:	41 56                	push   %r14
    2ab4:	53                   	push   %rbx
    2ab5:	48 83 ec 20          	sub    $0x20,%rsp
    2ab9:	48 89 f3             	mov    %rsi,%rbx
    2abc:	49 89 ff             	mov    %rdi,%r15
    2abf:	49 89 e6             	mov    %rsp,%r14
    2ac2:	48 8d 74 24 40       	lea    0x40(%rsp),%rsi
    2ac7:	4c 89 f7             	mov    %r14,%rdi
    2aca:	48 89 da             	mov    %rbx,%rdx
    2acd:	e8 2e fe ff ff       	call   2900 <_ZN7CompFabmiERKNS_10Vec3StructES2_>
    2ad2:	49 8d 7f 08          	lea    0x8(%r15),%rdi
    2ad6:	48 8d 35 03 b7 00 00 	lea    0xb703(%rip),%rsi        # e1e0 <UNIT_CUBE+0x8>
    2add:	e8 de 4a 00 00       	call   75c0 <_ZNSt6vectorIN7CompFab10Vec3StructESaIS1_EEaSERKS3_>
    2ae2:	49 8d 7f 68          	lea    0x68(%r15),%rdi
    2ae6:	48 8d 35 53 b7 00 00 	lea    0xb753(%rip),%rsi        # e240 <UNIT_CUBE+0x68>
    2aed:	e8 5e 4c 00 00       	call   7750 <_ZNSt6vectorIN7CompFab11Vec3iStructESaIS1_EEaSERKS3_>
    2af2:	49 8d 7f 20          	lea    0x20(%r15),%rdi
    2af6:	48 8d 35 fb b6 00 00 	lea    0xb6fb(%rip),%rsi        # e1f8 <UNIT_CUBE+0x20>
    2afd:	e8 be 4a 00 00       	call   75c0 <_ZNSt6vectorIN7CompFab10Vec3StructESaIS1_EEaSERKS3_>
    2b02:	49 8b 7f 08          	mov    0x8(%r15),%rdi
    2b06:	49 8b 77 10          	mov    0x10(%r15),%rsi
    2b0a:	48 89 f0             	mov    %rsi,%rax
    2b0d:	48 29 f8             	sub    %rdi,%rax
    2b10:	48 b9 ab aa aa aa aa 	movabs $0x2aaaaaaaaaaaaaab,%rcx
    2b17:	aa aa 2a 
    2b1a:	48 f7 e9             	imul   %rcx
    2b1d:	48 39 fe             	cmp    %rdi,%rsi
    2b20:	74 7c                	je     2b9e <_Z8makeCubeR4MeshRKN7CompFab10Vec3StructES2_+0xee>
    2b22:	48 89 d1             	mov    %rdx,%rcx
    2b25:	48 89 d0             	mov    %rdx,%rax
    2b28:	48 c1 e8 3f          	shr    $0x3f,%rax
    2b2c:	48 c1 f9 02          	sar    $0x2,%rcx
    2b30:	48 01 c1             	add    %rax,%rcx
    2b33:	48 83 f9 01          	cmp    $0x1,%rcx
    2b37:	49 89 c8             	mov    %rcx,%r8
    2b3a:	49 83 d0 00          	adc    $0x0,%r8
    2b3e:	49 83 f8 0e          	cmp    $0xe,%r8
    2b42:	73 64                	jae    2ba8 <_Z8makeCubeR4MeshRKN7CompFab10Vec3StructES2_+0xf8>
    2b44:	31 d2                	xor    %edx,%edx
    2b46:	31 c0                	xor    %eax,%eax
    2b48:	ff c0                	inc    %eax
    2b4a:	66 0f 1f 44 00 00    	nopw   0x0(%rax,%rax,1)
    2b50:	f2 0f 10 04 24       	movsd  (%rsp),%xmm0
    2b55:	48 8d 14 52          	lea    (%rdx,%rdx,2),%rdx
    2b59:	f2 0f 59 04 d7       	mulsd  (%rdi,%rdx,8),%xmm0
    2b5e:	f2 0f 58 03          	addsd  (%rbx),%xmm0
    2b62:	f2 0f 11 04 d7       	movsd  %xmm0,(%rdi,%rdx,8)
    2b67:	f2 0f 10 44 24 08    	movsd  0x8(%rsp),%xmm0
    2b6d:	f2 0f 59 44 d7 08    	mulsd  0x8(%rdi,%rdx,8),%xmm0
    2b73:	f2 0f 58 43 08       	addsd  0x8(%rbx),%xmm0
    2b78:	f2 0f 11 44 d7 08    	movsd  %xmm0,0x8(%rdi,%rdx,8)
    2b7e:	f2 0f 10 44 24 10    	movsd  0x10(%rsp),%xmm0
    2b84:	f2 0f 59 44 d7 10    	mulsd  0x10(%rdi,%rdx,8),%xmm0
    2b8a:	f2 0f 58 43 10       	addsd  0x10(%rbx),%xmm0
    2b8f:	f2 0f 11 44 d7 10    	movsd  %xmm0,0x10(%rdi,%rdx,8)
    2b95:	89 c2                	mov    %eax,%edx
    2b97:	ff c0                	inc    %eax
    2b99:	48 39 d1             	cmp    %rdx,%rcx
    2b9c:	77 b2                	ja     2b50 <_Z8makeCubeR4MeshRKN7CompFab10Vec3StructES2_+0xa0>
    2b9e:	48 83 c4 20          	add    $0x20,%rsp
    2ba2:	5b                   	pop    %rbx
    2ba3:	41 5e                	pop    %r14
    2ba5:	41 5f                	pop    %r15
    2ba7:	c3                   	ret    
    2ba8:	48 83 f9 01          	cmp    $0x1,%rcx
    2bac:	48 89 ce             	mov    %rcx,%rsi
    2baf:	48 83 d6 ff          	adc    $0xffffffffffffffff,%rsi
    2bb3:	ba 18 00 00 00       	mov    $0x18,%edx
    2bb8:	48 89 f0             	mov    %rsi,%rax
    2bbb:	48 f7 e2             	mul    %rdx
    2bbe:	41 0f 90 c1          	seto   %r9b
    2bc2:	31 d2                	xor    %edx,%edx
    2bc4:	83 fe ff             	cmp    $0xffffffff,%esi
    2bc7:	0f 84 79 ff ff ff    	je     2b46 <_Z8makeCubeR4MeshRKN7CompFab10Vec3StructES2_+0x96>
    2bcd:	48 c1 ee 20          	shr    $0x20,%rsi
    2bd1:	0f 85 6f ff ff ff    	jne    2b46 <_Z8makeCubeR4MeshRKN7CompFab10Vec3StructES2_+0x96>
    2bd7:	48 8d 77 10          	lea    0x10(%rdi),%rsi
    2bdb:	4c 8d 14 07          	lea    (%rdi,%rax,1),%r10
    2bdf:	49 83 c2 10          	add    $0x10,%r10
    2be3:	49 39 f2             	cmp    %rsi,%r10
    2be6:	0f 82 5a ff ff ff    	jb     2b46 <_Z8makeCubeR4MeshRKN7CompFab10Vec3StructES2_+0x96>
    2bec:	45 84 c9             	test   %r9b,%r9b
    2bef:	0f 85 51 ff ff ff    	jne    2b46 <_Z8makeCubeR4MeshRKN7CompFab10Vec3StructES2_+0x96>
    2bf5:	48 8d 77 08          	lea    0x8(%rdi),%rsi
    2bf9:	4c 8d 14 07          	lea    (%rdi,%rax,1),%r10
    2bfd:	49 83 c2 08          	add    $0x8,%r10
    2c01:	49 39 f2             	cmp    %rsi,%r10
    2c04:	0f 82 3c ff ff ff    	jb     2b46 <_Z8makeCubeR4MeshRKN7CompFab10Vec3StructES2_+0x96>
    2c0a:	45 84 c9             	test   %r9b,%r9b
    2c0d:	0f 85 33 ff ff ff    	jne    2b46 <_Z8makeCubeR4MeshRKN7CompFab10Vec3StructES2_+0x96>
    2c13:	48 01 f8             	add    %rdi,%rax
    2c16:	48 39 f8             	cmp    %rdi,%rax
    2c19:	0f 82 27 ff ff ff    	jb     2b46 <_Z8makeCubeR4MeshRKN7CompFab10Vec3StructES2_+0x96>
    2c1f:	b8 00 00 00 00       	mov    $0x0,%eax
    2c24:	45 84 c9             	test   %r9b,%r9b
    2c27:	0f 85 1b ff ff ff    	jne    2b48 <_Z8makeCubeR4MeshRKN7CompFab10Vec3StructES2_+0x98>
    2c2d:	48 83 f9 01          	cmp    $0x1,%rcx
    2c31:	48 89 c8             	mov    %rcx,%rax
    2c34:	48 83 d0 00          	adc    $0x0,%rax
    2c38:	48 8d 04 40          	lea    (%rax,%rax,2),%rax
    2c3c:	48 8d 04 c7          	lea    (%rdi,%rax,8),%rax
    2c40:	48 8d 53 18          	lea    0x18(%rbx),%rdx
    2c44:	48 8d 74 24 18       	lea    0x18(%rsp),%rsi
    2c49:	48 39 d7             	cmp    %rdx,%rdi
    2c4c:	41 0f 92 c2          	setb   %r10b
    2c50:	48 39 d8             	cmp    %rbx,%rax
    2c53:	41 0f 97 c3          	seta   %r11b
    2c57:	48 39 f7             	cmp    %rsi,%rdi
    2c5a:	40 0f 92 c6          	setb   %sil
    2c5e:	49 39 c6             	cmp    %rax,%r14
    2c61:	41 0f 92 c1          	setb   %r9b
    2c65:	31 d2                	xor    %edx,%edx
    2c67:	45 84 da             	test   %r11b,%r10b
    2c6a:	0f 85 d6 fe ff ff    	jne    2b46 <_Z8makeCubeR4MeshRKN7CompFab10Vec3StructES2_+0x96>
    2c70:	b8 00 00 00 00       	mov    $0x0,%eax
    2c75:	44 20 ce             	and    %r9b,%sil
    2c78:	0f 85 ca fe ff ff    	jne    2b48 <_Z8makeCubeR4MeshRKN7CompFab10Vec3StructES2_+0x98>
    2c7e:	4c 89 c2             	mov    %r8,%rdx
    2c81:	48 83 e2 fe          	and    $0xfffffffffffffffe,%rdx
    2c85:	89 d0                	mov    %edx,%eax
    2c87:	66 0f 28 04 24       	movapd (%rsp),%xmm0
    2c8c:	66 0f 14 c0          	unpcklpd %xmm0,%xmm0
    2c90:	66 0f 10 4c 24 08    	movupd 0x8(%rsp),%xmm1
    2c96:	66 0f 14 c9          	unpcklpd %xmm1,%xmm1
    2c9a:	f2 0f 10 54 24 10    	movsd  0x10(%rsp),%xmm2
    2ca0:	66 0f 14 d2          	unpcklpd %xmm2,%xmm2
    2ca4:	48 89 d6             	mov    %rdx,%rsi
    2ca7:	49 89 f9             	mov    %rdi,%r9
    2caa:	66 0f 1f 44 00 00    	nopw   0x0(%rax,%rax,1)
    2cb0:	66 0f 10 1b          	movupd (%rbx),%xmm3
    2cb4:	66 0f 10 63 08       	movupd 0x8(%rbx),%xmm4
    2cb9:	66 0f 14 db          	unpcklpd %xmm3,%xmm3
    2cbd:	f2 41 0f 10 29       	movsd  (%r9),%xmm5
    2cc2:	f2 41 0f 10 71 08    	movsd  0x8(%r9),%xmm6
    2cc8:	f2 41 0f 10 79 10    	movsd  0x10(%r9),%xmm7
    2cce:	66 41 0f 16 69 18    	movhpd 0x18(%r9),%xmm5
    2cd4:	66 0f 59 e8          	mulpd  %xmm0,%xmm5
    2cd8:	66 0f 58 eb          	addpd  %xmm3,%xmm5
    2cdc:	66 0f 14 e4          	unpcklpd %xmm4,%xmm4
    2ce0:	66 41 0f 16 71 20    	movhpd 0x20(%r9),%xmm6
    2ce6:	66 0f 59 f1          	mulpd  %xmm1,%xmm6
    2cea:	66 0f 58 f4          	addpd  %xmm4,%xmm6
    2cee:	f2 0f 10 5b 10       	movsd  0x10(%rbx),%xmm3
    2cf3:	66 41 0f 16 79 28    	movhpd 0x28(%r9),%xmm7
    2cf9:	66 0f 14 db          	unpcklpd %xmm3,%xmm3
    2cfd:	66 0f 59 fa          	mulpd  %xmm2,%xmm7
    2d01:	66 0f 58 fb          	addpd  %xmm3,%xmm7
    2d05:	66 0f 28 de          	movapd %xmm6,%xmm3
    2d09:	66 0f 15 df          	unpckhpd %xmm7,%xmm3
    2d0d:	66 0f c6 fd 02       	shufpd $0x2,%xmm5,%xmm7
    2d12:	66 0f 14 ee          	unpcklpd %xmm6,%xmm5
    2d16:	66 41 0f 11 29       	movupd %xmm5,(%r9)
    2d1b:	66 41 0f 11 79 10    	movupd %xmm7,0x10(%r9)
    2d21:	66 41 0f 11 59 20    	movupd %xmm3,0x20(%r9)
    2d27:	49 83 c1 30          	add    $0x30,%r9
    2d2b:	48 83 c6 fe          	add    $0xfffffffffffffffe,%rsi
    2d2f:	0f 85 7b ff ff ff    	jne    2cb0 <_Z8makeCubeR4MeshRKN7CompFab10Vec3StructES2_+0x200>
    2d35:	49 39 d0             	cmp    %rdx,%r8
    2d38:	0f 85 0a fe ff ff    	jne    2b48 <_Z8makeCubeR4MeshRKN7CompFab10Vec3StructES2_+0x98>
    2d3e:	e9 5b fe ff ff       	jmp    2b9e <_Z8makeCubeR4MeshRKN7CompFab10Vec3StructES2_+0xee>
    2d43:	66 66 66 66 2e 0f 1f 	data16 data16 data16 cs nopw 0x0(%rax,%rax,1)
    2d4a:	84 00 00 00 00 00 

0000000000002d50 <_ZN4MeshaSERKS_>:
    2d50:	41 56                	push   %r14
    2d52:	53                   	push   %rbx
    2d53:	50                   	push   %rax
    2d54:	48 89 f3             	mov    %rsi,%rbx
    2d57:	49 89 fe             	mov    %rdi,%r14
    2d5a:	48 83 c6 08          	add    $0x8,%rsi
    2d5e:	48 83 c7 08          	add    $0x8,%rdi
    2d62:	e8 59 48 00 00       	call   75c0 <_ZNSt6vectorIN7CompFab10Vec3StructESaIS1_EEaSERKS3_>
    2d67:	48 8d 73 68          	lea    0x68(%rbx),%rsi
    2d6b:	49 8d 7e 68          	lea    0x68(%r14),%rdi
    2d6f:	e8 dc 49 00 00       	call   7750 <_ZNSt6vectorIN7CompFab11Vec3iStructESaIS1_EEaSERKS3_>
    2d74:	48 83 c3 20          	add    $0x20,%rbx
    2d78:	49 8d 7e 20          	lea    0x20(%r14),%rdi
    2d7c:	48 89 de             	mov    %rbx,%rsi
    2d7f:	e8 3c 48 00 00       	call   75c0 <_ZNSt6vectorIN7CompFab10Vec3StructESaIS1_EEaSERKS3_>
    2d84:	4c 89 f0             	mov    %r14,%rax
    2d87:	48 83 c4 08          	add    $0x8,%rsp
    2d8b:	5b                   	pop    %rbx
    2d8c:	41 5e                	pop    %r14
    2d8e:	c3                   	ret    
    2d8f:	90                   	nop

0000000000002d90 <_ZN4Mesh6appendERKS_>:
    2d90:	55                   	push   %rbp
    2d91:	41 57                	push   %r15
    2d93:	41 56                	push   %r14
    2d95:	41 55                	push   %r13
    2d97:	41 54                	push   %r12
    2d99:	53                   	push   %rbx
    2d9a:	50                   	push   %rax
    2d9b:	49 89 f6             	mov    %rsi,%r14
    2d9e:	48 89 fb             	mov    %rdi,%rbx
    2da1:	48 83 c7 08          	add    $0x8,%rdi
    2da5:	48 8b 73 10          	mov    0x10(%rbx),%rsi
    2da9:	4c 8b 63 70          	mov    0x70(%rbx),%r12
    2dad:	49 89 f5             	mov    %rsi,%r13
    2db0:	4c 2b 6b 08          	sub    0x8(%rbx),%r13
    2db4:	4c 8d 7b 68          	lea    0x68(%rbx),%r15
    2db8:	4c 2b 63 68          	sub    0x68(%rbx),%r12
    2dbc:	49 c1 fc 02          	sar    $0x2,%r12
    2dc0:	48 bd ab aa aa aa aa 	movabs $0xaaaaaaaaaaaaaaab,%rbp
    2dc7:	aa aa aa 
    2dca:	4c 0f af e5          	imul   %rbp,%r12
    2dce:	49 8b 56 08          	mov    0x8(%r14),%rdx
    2dd2:	49 8b 4e 10          	mov    0x10(%r14),%rcx
    2dd6:	e8 65 4b 00 00       	call   7940 <_ZNSt6vectorIN7CompFab10Vec3StructESaIS1_EE15_M_range_insertIN9__gnu_cxx17__normal_iteratorIPKS1_S3_EEEEvNS6_IPS1_S3_EET_SC_St20forward_iterator_tag>
    2ddb:	48 8b 73 70          	mov    0x70(%rbx),%rsi
    2ddf:	49 8b 56 68          	mov    0x68(%r14),%rdx
    2de3:	49 8b 4e 70          	mov    0x70(%r14),%rcx
    2de7:	4c 89 ff             	mov    %r15,%rdi
    2dea:	e8 11 4e 00 00       	call   7c00 <_ZNSt6vectorIN7CompFab11Vec3iStructESaIS1_EE15_M_range_insertIN9__gnu_cxx17__normal_iteratorIPKS1_S3_EEEEvNS6_IPS1_S3_EET_SC_St20forward_iterator_tag>
    2def:	48 8b 43 68          	mov    0x68(%rbx),%rax
    2df3:	48 8b 4b 70          	mov    0x70(%rbx),%rcx
    2df7:	48 29 c1             	sub    %rax,%rcx
    2dfa:	48 c1 f9 02          	sar    $0x2,%rcx
    2dfe:	48 0f af cd          	imul   %rbp,%rcx
    2e02:	44 89 e2             	mov    %r12d,%edx
    2e05:	48 39 d1             	cmp    %rdx,%rcx
    2e08:	76 47                	jbe    2e51 <_ZN4Mesh6appendERKS_+0xc1>
    2e0a:	49 c1 ed 03          	shr    $0x3,%r13
    2e0e:	41 69 f5 ab aa aa aa 	imul   $0xaaaaaaab,%r13d,%esi
    2e15:	66 0f 6e c6          	movd   %esi,%xmm0
    2e19:	66 0f 70 c0 50       	pshufd $0x50,%xmm0,%xmm0
    2e1e:	41 ff c4             	inc    %r12d
    2e21:	66 66 66 66 66 66 2e 	data16 data16 data16 data16 data16 cs nopw 0x0(%rax,%rax,1)
    2e28:	0f 1f 84 00 00 00 00 
    2e2f:	00 
    2e30:	48 8d 14 52          	lea    (%rdx,%rdx,2),%rdx
    2e34:	f3 0f 7e 0c 90       	movq   (%rax,%rdx,4),%xmm1
    2e39:	66 0f fe c8          	paddd  %xmm0,%xmm1
    2e3d:	66 0f d6 0c 90       	movq   %xmm1,(%rax,%rdx,4)
    2e42:	01 74 90 08          	add    %esi,0x8(%rax,%rdx,4)
    2e46:	44 89 e2             	mov    %r12d,%edx
    2e49:	41 ff c4             	inc    %r12d
    2e4c:	48 39 d1             	cmp    %rdx,%rcx
    2e4f:	77 df                	ja     2e30 <_ZN4Mesh6appendERKS_+0xa0>
    2e51:	48 83 c4 08          	add    $0x8,%rsp
    2e55:	5b                   	pop    %rbx
    2e56:	41 5c                	pop    %r12
    2e58:	41 5d                	pop    %r13
    2e5a:	41 5e                	pop    %r14
    2e5c:	41 5f                	pop    %r15
    2e5e:	5d                   	pop    %rbp
    2e5f:	c3                   	ret    

0000000000002e60 <_ZN4MeshC1Ev>:
    2e60:	48 8d 05 21 af 00 00 	lea    0xaf21(%rip),%rax        # dd88 <_ZTV4Mesh+0x10>
    2e67:	48 89 07             	mov    %rax,(%rdi)
    2e6a:	0f 57 c0             	xorps  %xmm0,%xmm0
    2e6d:	0f 11 47 08          	movups %xmm0,0x8(%rdi)
    2e71:	0f 11 47 18          	movups %xmm0,0x18(%rdi)
    2e75:	0f 11 47 28          	movups %xmm0,0x28(%rdi)
    2e79:	0f 11 47 38          	movups %xmm0,0x38(%rdi)
    2e7d:	0f 11 47 48          	movups %xmm0,0x48(%rdi)
    2e81:	0f 11 47 58          	movups %xmm0,0x58(%rdi)
    2e85:	0f 11 47 68          	movups %xmm0,0x68(%rdi)
    2e89:	48 c7 47 78 00 00 00 	movq   $0x0,0x78(%rdi)
    2e90:	00 
    2e91:	c3                   	ret    
    2e92:	66 66 66 66 66 2e 0f 	data16 data16 data16 data16 cs nopw 0x0(%rax,%rax,1)
    2e99:	1f 84 00 00 00 00 00 

0000000000002ea0 <_ZN4MeshC1ERKSt6vectorIN7CompFab10Vec3StructESaIS2_EERKS0_INS1_11Vec3iStructESaIS7_EE>:
    2ea0:	41 57                	push   %r15
    2ea2:	41 56                	push   %r14
    2ea4:	41 55                	push   %r13
    2ea6:	41 54                	push   %r12
    2ea8:	53                   	push   %rbx
    2ea9:	49 89 d6             	mov    %rdx,%r14
    2eac:	49 89 f7             	mov    %rsi,%r15
    2eaf:	48 89 fb             	mov    %rdi,%rbx
    2eb2:	48 8d 05 cf ae 00 00 	lea    0xaecf(%rip),%rax        # dd88 <_ZTV4Mesh+0x10>
    2eb9:	48 89 07             	mov    %rax,(%rdi)
    2ebc:	48 8b 7e 08          	mov    0x8(%rsi),%rdi
    2ec0:	48 8b 06             	mov    (%rsi),%rax
    2ec3:	49 89 fd             	mov    %rdi,%r13
    2ec6:	49 29 c5             	sub    %rax,%r13
    2ec9:	49 c1 fd 03          	sar    $0x3,%r13
    2ecd:	49 bc ab aa aa aa aa 	movabs $0xaaaaaaaaaaaaaaab,%r12
    2ed4:	aa aa aa 
    2ed7:	4d 0f af ec          	imul   %r12,%r13
    2edb:	0f 57 c0             	xorps  %xmm0,%xmm0
    2ede:	0f 11 43 08          	movups %xmm0,0x8(%rbx)
    2ee2:	48 c7 43 18 00 00 00 	movq   $0x0,0x18(%rbx)
    2ee9:	00 
    2eea:	48 29 c7             	sub    %rax,%rdi
    2eed:	74 1a                	je     2f09 <_ZN4MeshC1ERKSt6vectorIN7CompFab10Vec3StructESaIS2_EERKS0_INS1_11Vec3iStructESaIS7_EE+0x69>
    2eef:	48 b8 56 55 55 55 55 	movabs $0x555555555555556,%rax
    2ef6:	55 55 05 
    2ef9:	49 39 c5             	cmp    %rax,%r13
    2efc:	0f 83 11 01 00 00    	jae    3013 <_ZN4MeshC1ERKSt6vectorIN7CompFab10Vec3StructESaIS2_EERKS0_INS1_11Vec3iStructESaIS7_EE+0x173>
    2f02:	e8 99 f2 ff ff       	call   21a0 <_Znwm@plt>
    2f07:	eb 02                	jmp    2f0b <_ZN4MeshC1ERKSt6vectorIN7CompFab10Vec3StructESaIS2_EERKS0_INS1_11Vec3iStructESaIS7_EE+0x6b>
    2f09:	31 c0                	xor    %eax,%eax
    2f0b:	48 89 43 08          	mov    %rax,0x8(%rbx)
    2f0f:	48 89 43 10          	mov    %rax,0x10(%rbx)
    2f13:	4a 8d 0c 6d 00 00 00 	lea    0x0(,%r13,2),%rcx
    2f1a:	00 
    2f1b:	4c 01 e9             	add    %r13,%rcx
    2f1e:	48 8d 0c c8          	lea    (%rax,%rcx,8),%rcx
    2f22:	48 89 4b 18          	mov    %rcx,0x18(%rbx)
    2f26:	49 8b 0f             	mov    (%r15),%rcx
    2f29:	49 8b 57 08          	mov    0x8(%r15),%rdx
    2f2d:	48 39 d1             	cmp    %rdx,%rcx
    2f30:	74 29                	je     2f5b <_ZN4MeshC1ERKSt6vectorIN7CompFab10Vec3StructESaIS2_EERKS0_INS1_11Vec3iStructESaIS7_EE+0xbb>
    2f32:	66 66 66 66 66 2e 0f 	data16 data16 data16 data16 cs nopw 0x0(%rax,%rax,1)
    2f39:	1f 84 00 00 00 00 00 
    2f40:	48 8b 71 10          	mov    0x10(%rcx),%rsi
    2f44:	48 89 70 10          	mov    %rsi,0x10(%rax)
    2f48:	0f 10 01             	movups (%rcx),%xmm0
    2f4b:	0f 11 00             	movups %xmm0,(%rax)
    2f4e:	48 83 c1 18          	add    $0x18,%rcx
    2f52:	48 83 c0 18          	add    $0x18,%rax
    2f56:	48 39 d1             	cmp    %rdx,%rcx
    2f59:	75 e5                	jne    2f40 <_ZN4MeshC1ERKSt6vectorIN7CompFab10Vec3StructESaIS2_EERKS0_INS1_11Vec3iStructESaIS7_EE+0xa0>
    2f5b:	48 89 43 10          	mov    %rax,0x10(%rbx)
    2f5f:	0f 57 c0             	xorps  %xmm0,%xmm0
    2f62:	0f 11 43 20          	movups %xmm0,0x20(%rbx)
    2f66:	0f 11 43 30          	movups %xmm0,0x30(%rbx)
    2f6a:	0f 11 43 40          	movups %xmm0,0x40(%rbx)
    2f6e:	0f 11 43 50          	movups %xmm0,0x50(%rbx)
    2f72:	48 c7 43 60 00 00 00 	movq   $0x0,0x60(%rbx)
    2f79:	00 
    2f7a:	49 8b 7e 08          	mov    0x8(%r14),%rdi
    2f7e:	49 8b 06             	mov    (%r14),%rax
    2f81:	49 89 ff             	mov    %rdi,%r15
    2f84:	49 29 c7             	sub    %rax,%r15
    2f87:	49 c1 ff 02          	sar    $0x2,%r15
    2f8b:	4d 0f af fc          	imul   %r12,%r15
    2f8f:	0f 11 43 68          	movups %xmm0,0x68(%rbx)
    2f93:	48 c7 43 78 00 00 00 	movq   $0x0,0x78(%rbx)
    2f9a:	00 
    2f9b:	48 29 c7             	sub    %rax,%rdi
    2f9e:	74 16                	je     2fb6 <_ZN4MeshC1ERKSt6vectorIN7CompFab10Vec3StructESaIS2_EERKS0_INS1_11Vec3iStructESaIS7_EE+0x116>
    2fa0:	48 b8 ab aa aa aa aa 	movabs $0xaaaaaaaaaaaaaab,%rax
    2fa7:	aa aa 0a 
    2faa:	49 39 c7             	cmp    %rax,%r15
    2fad:	73 69                	jae    3018 <_ZN4MeshC1ERKSt6vectorIN7CompFab10Vec3StructESaIS2_EERKS0_INS1_11Vec3iStructESaIS7_EE+0x178>
    2faf:	e8 ec f1 ff ff       	call   21a0 <_Znwm@plt>
    2fb4:	eb 02                	jmp    2fb8 <_ZN4MeshC1ERKSt6vectorIN7CompFab10Vec3StructESaIS2_EERKS0_INS1_11Vec3iStructESaIS7_EE+0x118>
    2fb6:	31 c0                	xor    %eax,%eax
    2fb8:	48 89 43 68          	mov    %rax,0x68(%rbx)
    2fbc:	48 89 43 70          	mov    %rax,0x70(%rbx)
    2fc0:	4b 8d 0c 7f          	lea    (%r15,%r15,2),%rcx
    2fc4:	48 8d 0c 88          	lea    (%rax,%rcx,4),%rcx
    2fc8:	48 89 4b 78          	mov    %rcx,0x78(%rbx)
    2fcc:	49 8b 0e             	mov    (%r14),%rcx
    2fcf:	49 8b 56 08          	mov    0x8(%r14),%rdx
    2fd3:	48 39 d1             	cmp    %rdx,%rcx
    2fd6:	74 21                	je     2ff9 <_ZN4MeshC1ERKSt6vectorIN7CompFab10Vec3StructESaIS2_EERKS0_INS1_11Vec3iStructESaIS7_EE+0x159>
    2fd8:	0f 1f 84 00 00 00 00 	nopl   0x0(%rax,%rax,1)
    2fdf:	00 
    2fe0:	8b 71 08             	mov    0x8(%rcx),%esi
    2fe3:	89 70 08             	mov    %esi,0x8(%rax)
    2fe6:	48 8b 31             	mov    (%rcx),%rsi
    2fe9:	48 89 30             	mov    %rsi,(%rax)
    2fec:	48 83 c1 0c          	add    $0xc,%rcx
    2ff0:	48 83 c0 0c          	add    $0xc,%rax
    2ff4:	48 39 d1             	cmp    %rdx,%rcx
    2ff7:	75 e7                	jne    2fe0 <_ZN4MeshC1ERKSt6vectorIN7CompFab10Vec3StructESaIS2_EERKS0_INS1_11Vec3iStructESaIS7_EE+0x140>
    2ff9:	4c 8d 7b 68          	lea    0x68(%rbx),%r15
    2ffd:	48 89 43 70          	mov    %rax,0x70(%rbx)
    3001:	48 89 df             	mov    %rbx,%rdi
    3004:	e8 b7 00 00 00       	call   30c0 <_ZN4Mesh12compute_normEv>
    3009:	5b                   	pop    %rbx
    300a:	41 5c                	pop    %r12
    300c:	41 5d                	pop    %r13
    300e:	41 5e                	pop    %r14
    3010:	41 5f                	pop    %r15
    3012:	c3                   	ret    
    3013:	e8 28 f1 ff ff       	call   2140 <_ZSt28__throw_bad_array_new_lengthv@plt>
    3018:	e8 23 f1 ff ff       	call   2140 <_ZSt28__throw_bad_array_new_lengthv@plt>
    301d:	49 89 c6             	mov    %rax,%r14
    3020:	49 8b 3f             	mov    (%r15),%rdi
    3023:	48 85 ff             	test   %rdi,%rdi
    3026:	75 32                	jne    305a <_ZN4MeshC1ERKSt6vectorIN7CompFab10Vec3StructESaIS2_EERKS0_INS1_11Vec3iStructESaIS7_EE+0x1ba>
    3028:	48 8b 7b 50          	mov    0x50(%rbx),%rdi
    302c:	48 85 ff             	test   %rdi,%rdi
    302f:	75 45                	jne    3076 <_ZN4MeshC1ERKSt6vectorIN7CompFab10Vec3StructESaIS2_EERKS0_INS1_11Vec3iStructESaIS7_EE+0x1d6>
    3031:	4c 8d 7b 20          	lea    0x20(%rbx),%r15
    3035:	48 8b 7b 38          	mov    0x38(%rbx),%rdi
    3039:	48 85 ff             	test   %rdi,%rdi
    303c:	75 4a                	jne    3088 <_ZN4MeshC1ERKSt6vectorIN7CompFab10Vec3StructESaIS2_EERKS0_INS1_11Vec3iStructESaIS7_EE+0x1e8>
    303e:	48 83 c3 08          	add    $0x8,%rbx
    3042:	49 8b 3f             	mov    (%r15),%rdi
    3045:	48 85 ff             	test   %rdi,%rdi
    3048:	75 4f                	jne    3099 <_ZN4MeshC1ERKSt6vectorIN7CompFab10Vec3StructESaIS2_EERKS0_INS1_11Vec3iStructESaIS7_EE+0x1f9>
    304a:	48 8b 3b             	mov    (%rbx),%rdi
    304d:	48 85 ff             	test   %rdi,%rdi
    3050:	75 54                	jne    30a6 <_ZN4MeshC1ERKSt6vectorIN7CompFab10Vec3StructESaIS2_EERKS0_INS1_11Vec3iStructESaIS7_EE+0x206>
    3052:	4c 89 f7             	mov    %r14,%rdi
    3055:	e8 b6 f2 ff ff       	call   2310 <_Unwind_Resume@plt>
    305a:	e8 21 f1 ff ff       	call   2180 <_ZdlPv@plt>
    305f:	48 8b 7b 50          	mov    0x50(%rbx),%rdi
    3063:	48 85 ff             	test   %rdi,%rdi
    3066:	74 c9                	je     3031 <_ZN4MeshC1ERKSt6vectorIN7CompFab10Vec3StructESaIS2_EERKS0_INS1_11Vec3iStructESaIS7_EE+0x191>
    3068:	eb 0c                	jmp    3076 <_ZN4MeshC1ERKSt6vectorIN7CompFab10Vec3StructESaIS2_EERKS0_INS1_11Vec3iStructESaIS7_EE+0x1d6>
    306a:	49 89 c6             	mov    %rax,%r14
    306d:	48 8b 7b 50          	mov    0x50(%rbx),%rdi
    3071:	48 85 ff             	test   %rdi,%rdi
    3074:	74 bb                	je     3031 <_ZN4MeshC1ERKSt6vectorIN7CompFab10Vec3StructESaIS2_EERKS0_INS1_11Vec3iStructESaIS7_EE+0x191>
    3076:	e8 05 f1 ff ff       	call   2180 <_ZdlPv@plt>
    307b:	4c 8d 7b 20          	lea    0x20(%rbx),%r15
    307f:	48 8b 7b 38          	mov    0x38(%rbx),%rdi
    3083:	48 85 ff             	test   %rdi,%rdi
    3086:	74 b6                	je     303e <_ZN4MeshC1ERKSt6vectorIN7CompFab10Vec3StructESaIS2_EERKS0_INS1_11Vec3iStructESaIS7_EE+0x19e>
    3088:	e8 f3 f0 ff ff       	call   2180 <_ZdlPv@plt>
    308d:	48 83 c3 08          	add    $0x8,%rbx
    3091:	49 8b 3f             	mov    (%r15),%rdi
    3094:	48 85 ff             	test   %rdi,%rdi
    3097:	74 b1                	je     304a <_ZN4MeshC1ERKSt6vectorIN7CompFab10Vec3StructESaIS2_EERKS0_INS1_11Vec3iStructESaIS7_EE+0x1aa>
    3099:	e8 e2 f0 ff ff       	call   2180 <_ZdlPv@plt>
    309e:	48 8b 3b             	mov    (%rbx),%rdi
    30a1:	48 85 ff             	test   %rdi,%rdi
    30a4:	74 ac                	je     3052 <_ZN4MeshC1ERKSt6vectorIN7CompFab10Vec3StructESaIS2_EERKS0_INS1_11Vec3iStructESaIS7_EE+0x1b2>
    30a6:	e8 d5 f0 ff ff       	call   2180 <_ZdlPv@plt>
    30ab:	4c 89 f7             	mov    %r14,%rdi
    30ae:	e8 5d f2 ff ff       	call   2310 <_Unwind_Resume@plt>
    30b3:	66 66 66 66 2e 0f 1f 	data16 data16 data16 cs nopw 0x0(%rax,%rax,1)
    30ba:	84 00 00 00 00 00 

00000000000030c0 <_ZN4Mesh12compute_normEv>:
    30c0:	55                   	push   %rbp
    30c1:	41 57                	push   %r15
    30c3:	41 56                	push   %r14
    30c5:	41 55                	push   %r13
    30c7:	41 54                	push   %r12
    30c9:	53                   	push   %rbx
    30ca:	48 83 ec 68          	sub    $0x68,%rsp
    30ce:	48 89 fb             	mov    %rdi,%rbx
    30d1:	48 8d 7c 24 38       	lea    0x38(%rsp),%rdi
    30d6:	e8 a5 f6 ff ff       	call   2780 <_ZN7CompFab10Vec3StructC1Ev>
    30db:	48 8b 43 10          	mov    0x10(%rbx),%rax
    30df:	48 8b 4b 20          	mov    0x20(%rbx),%rcx
    30e3:	48 2b 43 08          	sub    0x8(%rbx),%rax
    30e7:	48 c1 f8 03          	sar    $0x3,%rax
    30eb:	49 bf ab aa aa aa aa 	movabs $0xaaaaaaaaaaaaaaab,%r15
    30f2:	aa aa aa 
    30f5:	49 0f af c7          	imul   %r15,%rax
    30f9:	48 8b 73 28          	mov    0x28(%rbx),%rsi
    30fd:	48 89 f7             	mov    %rsi,%rdi
    3100:	48 29 cf             	sub    %rcx,%rdi
    3103:	48 c1 ff 03          	sar    $0x3,%rdi
    3107:	49 0f af ff          	imul   %r15,%rdi
    310b:	48 89 c2             	mov    %rax,%rdx
    310e:	48 29 fa             	sub    %rdi,%rdx
    3111:	76 10                	jbe    3123 <_ZN4Mesh12compute_normEv+0x63>
    3113:	48 8d 7b 20          	lea    0x20(%rbx),%rdi
    3117:	48 8d 4c 24 38       	lea    0x38(%rsp),%rcx
    311c:	e8 bf 54 00 00       	call   85e0 <_ZNSt6vectorIN7CompFab10Vec3StructESaIS1_EE14_M_fill_insertEN9__gnu_cxx17__normal_iteratorIPS1_S3_EEmRKS1_>
    3121:	eb 13                	jmp    3136 <_ZN4Mesh12compute_normEv+0x76>
    3123:	73 11                	jae    3136 <_ZN4Mesh12compute_normEv+0x76>
    3125:	48 8d 04 40          	lea    (%rax,%rax,2),%rax
    3129:	48 8d 04 c1          	lea    (%rcx,%rax,8),%rax
    312d:	48 39 c6             	cmp    %rax,%rsi
    3130:	74 04                	je     3136 <_ZN4Mesh12compute_normEv+0x76>
    3132:	48 89 43 28          	mov    %rax,0x28(%rbx)
    3136:	48 8b 43 68          	mov    0x68(%rbx),%rax
    313a:	48 39 43 70          	cmp    %rax,0x70(%rbx)
    313e:	0f 84 83 03 00 00    	je     34c7 <_ZN4Mesh12compute_normEv+0x407>
    3144:	41 be 01 00 00 00    	mov    $0x1,%r14d
    314a:	45 31 ed             	xor    %r13d,%r13d
    314d:	e9 b2 00 00 00       	jmp    3204 <_ZN4Mesh12compute_normEv+0x144>
    3152:	66 66 66 66 66 2e 0f 	data16 data16 data16 data16 cs nopw 0x0(%rax,%rax,1)
    3159:	1f 84 00 00 00 00 00 
    3160:	48 8b 3d 69 ae 00 00 	mov    0xae69(%rip),%rdi        # dfd0 <_ZSt4cout@GLIBCXX_3.4>
    3167:	4c 89 ee             	mov    %r13,%rsi
    316a:	e8 b1 ef ff ff       	call   2120 <_ZNSo9_M_insertImEERSoT_@plt>
    316f:	49 89 c4             	mov    %rax,%r12
    3172:	ba 01 00 00 00       	mov    $0x1,%edx
    3177:	48 89 c7             	mov    %rax,%rdi
    317a:	4c 8d 3d 88 81 00 00 	lea    0x8188(%rip),%r15        # b309 <_ZTS4Mesh+0x16b>
    3181:	4c 89 fe             	mov    %r15,%rsi
    3184:	e8 57 f0 ff ff       	call   21e0 <_ZSt16__ostream_insertIcSt11char_traitsIcEERSt13basic_ostreamIT_T0_ES6_PKS3_l@plt>
    3189:	4c 89 e7             	mov    %r12,%rdi
    318c:	be 02 00 00 00       	mov    $0x2,%esi
    3191:	e8 5a f1 ff ff       	call   22f0 <_ZNSolsEi@plt>
    3196:	49 89 c4             	mov    %rax,%r12
    3199:	ba 01 00 00 00       	mov    $0x1,%edx
    319e:	48 89 c7             	mov    %rax,%rdi
    31a1:	4c 89 fe             	mov    %r15,%rsi
    31a4:	e8 37 f0 ff ff       	call   21e0 <_ZSt16__ostream_insertIcSt11char_traitsIcEERSt13basic_ostreamIT_T0_ES6_PKS3_l@plt>
    31a9:	48 8b 43 68          	mov    0x68(%rbx),%rax
    31ad:	4a 8d 0c 6d 00 00 00 	lea    0x0(,%r13,2),%rcx
    31b4:	00 
    31b5:	4c 01 e9             	add    %r13,%rcx
    31b8:	8b 74 88 08          	mov    0x8(%rax,%rcx,4),%esi
    31bc:	4c 89 e7             	mov    %r12,%rdi
    31bf:	e8 2c f1 ff ff       	call   22f0 <_ZNSolsEi@plt>
    31c4:	ba 1a 00 00 00       	mov    $0x1a,%edx
    31c9:	48 89 c7             	mov    %rax,%rdi
    31cc:	48 8d 35 4d 7f 00 00 	lea    0x7f4d(%rip),%rsi        # b120 <_IO_stdin_used+0x120>
    31d3:	e8 08 f0 ff ff       	call   21e0 <_ZSt16__ostream_insertIcSt11char_traitsIcEERSt13basic_ostreamIT_T0_ES6_PKS3_l@plt>
    31d8:	48 8b 43 68          	mov    0x68(%rbx),%rax
    31dc:	45 89 f5             	mov    %r14d,%r13d
    31df:	48 8b 4b 70          	mov    0x70(%rbx),%rcx
    31e3:	48 29 c1             	sub    %rax,%rcx
    31e6:	48 c1 f9 02          	sar    $0x2,%rcx
    31ea:	49 bf ab aa aa aa aa 	movabs $0xaaaaaaaaaaaaaaab,%r15
    31f1:	aa aa aa 
    31f4:	49 0f af cf          	imul   %r15,%rcx
    31f8:	41 ff c6             	inc    %r14d
    31fb:	4c 39 e9             	cmp    %r13,%rcx
    31fe:	0f 86 c3 02 00 00    	jbe    34c7 <_ZN4Mesh12compute_normEv+0x407>
    3204:	4a 8d 0c ad 00 00 00 	lea    0x0(,%r13,4),%rcx
    320b:	00 
    320c:	4c 8d 3c 49          	lea    (%rcx,%rcx,2),%r15
    3210:	4a 63 4c 38 04       	movslq 0x4(%rax,%r15,1),%rcx
    3215:	48 8b 53 08          	mov    0x8(%rbx),%rdx
    3219:	48 8d 0c 49          	lea    (%rcx,%rcx,2),%rcx
    321d:	48 8d 34 ca          	lea    (%rdx,%rcx,8),%rsi
    3221:	4a 63 04 38          	movslq (%rax,%r15,1),%rax
    3225:	48 8d 04 40          	lea    (%rax,%rax,2),%rax
    3229:	48 8d 14 c2          	lea    (%rdx,%rax,8),%rdx
    322d:	4c 8d 64 24 50       	lea    0x50(%rsp),%r12
    3232:	4c 89 e7             	mov    %r12,%rdi
    3235:	e8 c6 f6 ff ff       	call   2900 <_ZN7CompFabmiERKNS_10Vec3StructES2_>
    323a:	48 8b 43 08          	mov    0x8(%rbx),%rax
    323e:	48 8b 4b 68          	mov    0x68(%rbx),%rcx
    3242:	4a 63 54 39 08       	movslq 0x8(%rcx,%r15,1),%rdx
    3247:	48 8d 14 52          	lea    (%rdx,%rdx,2),%rdx
    324b:	48 8d 34 d0          	lea    (%rax,%rdx,8),%rsi
    324f:	4a 63 0c 39          	movslq (%rcx,%r15,1),%rcx
    3253:	48 8d 0c 49          	lea    (%rcx,%rcx,2),%rcx
    3257:	48 8d 14 c8          	lea    (%rax,%rcx,8),%rdx
    325b:	48 89 e5             	mov    %rsp,%rbp
    325e:	48 89 ef             	mov    %rbp,%rdi
    3261:	e8 9a f6 ff ff       	call   2900 <_ZN7CompFabmiERKNS_10Vec3StructES2_>
    3266:	48 8d 7c 24 20       	lea    0x20(%rsp),%rdi
    326b:	4c 89 e6             	mov    %r12,%rsi
    326e:	48 89 ea             	mov    %rbp,%rdx
    3271:	e8 ea f6 ff ff       	call   2960 <_ZN7CompFabrmERKNS_10Vec3StructES2_>
    3276:	48 8b 44 24 30       	mov    0x30(%rsp),%rax
    327b:	48 89 44 24 10       	mov    %rax,0x10(%rsp)
    3280:	0f 10 44 24 20       	movups 0x20(%rsp),%xmm0
    3285:	0f 29 04 24          	movaps %xmm0,(%rsp)
    3289:	48 89 ef             	mov    %rbp,%rdi
    328c:	e8 0f f5 ff ff       	call   27a0 <_ZN7CompFab10Vec3Struct9normalizeEv>
    3291:	48 8b 43 20          	mov    0x20(%rbx),%rax
    3295:	48 8b 4b 68          	mov    0x68(%rbx),%rcx
    3299:	4a 63 0c 39          	movslq (%rcx,%r15,1),%rcx
    329d:	48 8d 0c 49          	lea    (%rcx,%rcx,2),%rcx
    32a1:	f2 0f 10 04 24       	movsd  (%rsp),%xmm0
    32a6:	f2 0f 58 04 c8       	addsd  (%rax,%rcx,8),%xmm0
    32ab:	f2 0f 11 04 c8       	movsd  %xmm0,(%rax,%rcx,8)
    32b0:	f2 0f 10 44 24 08    	movsd  0x8(%rsp),%xmm0
    32b6:	f2 0f 58 44 c8 08    	addsd  0x8(%rax,%rcx,8),%xmm0
    32bc:	f2 0f 11 44 c8 08    	movsd  %xmm0,0x8(%rax,%rcx,8)
    32c2:	f2 0f 10 44 24 10    	movsd  0x10(%rsp),%xmm0
    32c8:	f2 0f 58 44 c8 10    	addsd  0x10(%rax,%rcx,8),%xmm0
    32ce:	f2 0f 11 44 c8 10    	movsd  %xmm0,0x10(%rax,%rcx,8)
    32d4:	48 8b 4b 68          	mov    0x68(%rbx),%rcx
    32d8:	42 8b 14 39          	mov    (%rcx,%r15,1),%edx
    32dc:	85 d2                	test   %edx,%edx
    32de:	78 19                	js     32f9 <_ZN4Mesh12compute_normEv+0x239>
    32e0:	48 8b 43 20          	mov    0x20(%rbx),%rax
    32e4:	48 8b 73 28          	mov    0x28(%rbx),%rsi
    32e8:	48 29 c6             	sub    %rax,%rsi
    32eb:	48 c1 ee 03          	shr    $0x3,%rsi
    32ef:	69 f6 ab aa aa aa    	imul   $0xaaaaaaab,%esi,%esi
    32f5:	39 f2                	cmp    %esi,%edx
    32f7:	7c 7c                	jl     3375 <_ZN4Mesh12compute_normEv+0x2b5>
    32f9:	48 8b 3d d0 ac 00 00 	mov    0xacd0(%rip),%rdi        # dfd0 <_ZSt4cout@GLIBCXX_3.4>
    3300:	4c 89 ee             	mov    %r13,%rsi
    3303:	e8 18 ee ff ff       	call   2120 <_ZNSo9_M_insertImEERSoT_@plt>
    3308:	49 89 c4             	mov    %rax,%r12
    330b:	ba 01 00 00 00       	mov    $0x1,%edx
    3310:	48 89 c7             	mov    %rax,%rdi
    3313:	48 8d 2d ef 7f 00 00 	lea    0x7fef(%rip),%rbp        # b309 <_ZTS4Mesh+0x16b>
    331a:	48 89 ee             	mov    %rbp,%rsi
    331d:	e8 be ee ff ff       	call   21e0 <_ZSt16__ostream_insertIcSt11char_traitsIcEERSt13basic_ostreamIT_T0_ES6_PKS3_l@plt>
    3322:	4c 89 e7             	mov    %r12,%rdi
    3325:	31 f6                	xor    %esi,%esi
    3327:	e8 c4 ef ff ff       	call   22f0 <_ZNSolsEi@plt>
    332c:	49 89 c4             	mov    %rax,%r12
    332f:	ba 01 00 00 00       	mov    $0x1,%edx
    3334:	48 89 c7             	mov    %rax,%rdi
    3337:	48 89 ee             	mov    %rbp,%rsi
    333a:	e8 a1 ee ff ff       	call   21e0 <_ZSt16__ostream_insertIcSt11char_traitsIcEERSt13basic_ostreamIT_T0_ES6_PKS3_l@plt>
    333f:	48 8b 43 68          	mov    0x68(%rbx),%rax
    3343:	4a 8d 0c 6d 00 00 00 	lea    0x0(,%r13,2),%rcx
    334a:	00 
    334b:	4c 01 e9             	add    %r13,%rcx
    334e:	8b 34 88             	mov    (%rax,%rcx,4),%esi
    3351:	4c 89 e7             	mov    %r12,%rdi
    3354:	e8 97 ef ff ff       	call   22f0 <_ZNSolsEi@plt>
    3359:	ba 1a 00 00 00       	mov    $0x1a,%edx
    335e:	48 89 c7             	mov    %rax,%rdi
    3361:	48 8d 35 b8 7d 00 00 	lea    0x7db8(%rip),%rsi        # b120 <_IO_stdin_used+0x120>
    3368:	e8 73 ee ff ff       	call   21e0 <_ZSt16__ostream_insertIcSt11char_traitsIcEERSt13basic_ostreamIT_T0_ES6_PKS3_l@plt>
    336d:	48 8b 43 20          	mov    0x20(%rbx),%rax
    3371:	48 8b 4b 68          	mov    0x68(%rbx),%rcx
    3375:	4a 63 4c 39 04       	movslq 0x4(%rcx,%r15,1),%rcx
    337a:	48 8d 0c 49          	lea    (%rcx,%rcx,2),%rcx
    337e:	f2 0f 10 04 24       	movsd  (%rsp),%xmm0
    3383:	f2 0f 58 04 c8       	addsd  (%rax,%rcx,8),%xmm0
    3388:	f2 0f 11 04 c8       	movsd  %xmm0,(%rax,%rcx,8)
    338d:	f2 0f 10 44 24 08    	movsd  0x8(%rsp),%xmm0
    3393:	f2 0f 58 44 c8 08    	addsd  0x8(%rax,%rcx,8),%xmm0
    3399:	f2 0f 11 44 c8 08    	movsd  %xmm0,0x8(%rax,%rcx,8)
    339f:	f2 0f 10 44 24 10    	movsd  0x10(%rsp),%xmm0
    33a5:	f2 0f 58 44 c8 10    	addsd  0x10(%rax,%rcx,8),%xmm0
    33ab:	f2 0f 11 44 c8 10    	movsd  %xmm0,0x10(%rax,%rcx,8)
    33b1:	48 8b 4b 68          	mov    0x68(%rbx),%rcx
    33b5:	42 8b 54 39 04       	mov    0x4(%rcx,%r15,1),%edx
    33ba:	85 d2                	test   %edx,%edx
    33bc:	78 1d                	js     33db <_ZN4Mesh12compute_normEv+0x31b>
    33be:	48 8b 43 20          	mov    0x20(%rbx),%rax
    33c2:	48 8b 73 28          	mov    0x28(%rbx),%rsi
    33c6:	48 29 c6             	sub    %rax,%rsi
    33c9:	48 c1 ee 03          	shr    $0x3,%rsi
    33cd:	69 f6 ab aa aa aa    	imul   $0xaaaaaaab,%esi,%esi
    33d3:	39 f2                	cmp    %esi,%edx
    33d5:	0f 8c 80 00 00 00    	jl     345b <_ZN4Mesh12compute_normEv+0x39b>
    33db:	48 8b 3d ee ab 00 00 	mov    0xabee(%rip),%rdi        # dfd0 <_ZSt4cout@GLIBCXX_3.4>
    33e2:	4c 89 ee             	mov    %r13,%rsi
    33e5:	e8 36 ed ff ff       	call   2120 <_ZNSo9_M_insertImEERSoT_@plt>
    33ea:	49 89 c4             	mov    %rax,%r12
    33ed:	ba 01 00 00 00       	mov    $0x1,%edx
    33f2:	48 89 c7             	mov    %rax,%rdi
    33f5:	48 8d 2d 0d 7f 00 00 	lea    0x7f0d(%rip),%rbp        # b309 <_ZTS4Mesh+0x16b>
    33fc:	48 89 ee             	mov    %rbp,%rsi
    33ff:	e8 dc ed ff ff       	call   21e0 <_ZSt16__ostream_insertIcSt11char_traitsIcEERSt13basic_ostreamIT_T0_ES6_PKS3_l@plt>
    3404:	4c 89 e7             	mov    %r12,%rdi
    3407:	be 01 00 00 00       	mov    $0x1,%esi
    340c:	e8 df ee ff ff       	call   22f0 <_ZNSolsEi@plt>
    3411:	49 89 c4             	mov    %rax,%r12
    3414:	ba 01 00 00 00       	mov    $0x1,%edx
    3419:	48 89 c7             	mov    %rax,%rdi
    341c:	48 89 ee             	mov    %rbp,%rsi
    341f:	e8 bc ed ff ff       	call   21e0 <_ZSt16__ostream_insertIcSt11char_traitsIcEERSt13basic_ostreamIT_T0_ES6_PKS3_l@plt>
    3424:	48 8b 43 68          	mov    0x68(%rbx),%rax
    3428:	4a 8d 0c 6d 00 00 00 	lea    0x0(,%r13,2),%rcx
    342f:	00 
    3430:	4c 01 e9             	add    %r13,%rcx
    3433:	8b 74 88 04          	mov    0x4(%rax,%rcx,4),%esi
    3437:	4c 89 e7             	mov    %r12,%rdi
    343a:	e8 b1 ee ff ff       	call   22f0 <_ZNSolsEi@plt>
    343f:	ba 1a 00 00 00       	mov    $0x1a,%edx
    3444:	48 89 c7             	mov    %rax,%rdi
    3447:	48 8d 35 d2 7c 00 00 	lea    0x7cd2(%rip),%rsi        # b120 <_IO_stdin_used+0x120>
    344e:	e8 8d ed ff ff       	call   21e0 <_ZSt16__ostream_insertIcSt11char_traitsIcEERSt13basic_ostreamIT_T0_ES6_PKS3_l@plt>
    3453:	48 8b 43 20          	mov    0x20(%rbx),%rax
    3457:	48 8b 4b 68          	mov    0x68(%rbx),%rcx
    345b:	4a 63 4c 39 08       	movslq 0x8(%rcx,%r15,1),%rcx
    3460:	48 8d 0c 49          	lea    (%rcx,%rcx,2),%rcx
    3464:	f2 0f 10 04 24       	movsd  (%rsp),%xmm0
    3469:	f2 0f 58 04 c8       	addsd  (%rax,%rcx,8),%xmm0
    346e:	f2 0f 11 04 c8       	movsd  %xmm0,(%rax,%rcx,8)
    3473:	f2 0f 10 44 24 08    	movsd  0x8(%rsp),%xmm0
    3479:	f2 0f 58 44 c8 08    	addsd  0x8(%rax,%rcx,8),%xmm0
    347f:	f2 0f 11 44 c8 08    	movsd  %xmm0,0x8(%rax,%rcx,8)
    3485:	f2 0f 10 44 24 10    	movsd  0x10(%rsp),%xmm0
    348b:	f2 0f 58 44 c8 10    	addsd  0x10(%rax,%rcx,8),%xmm0
    3491:	f2 0f 11 44 c8 10    	movsd  %xmm0,0x10(%rax,%rcx,8)
    3497:	48 8b 43 68          	mov    0x68(%rbx),%rax
    349b:	42 8b 4c 38 08       	mov    0x8(%rax,%r15,1),%ecx
    34a0:	85 c9                	test   %ecx,%ecx
    34a2:	0f 88 b8 fc ff ff    	js     3160 <_ZN4Mesh12compute_normEv+0xa0>
    34a8:	48 8b 53 28          	mov    0x28(%rbx),%rdx
    34ac:	48 2b 53 20          	sub    0x20(%rbx),%rdx
    34b0:	48 c1 ea 03          	shr    $0x3,%rdx
    34b4:	69 d2 ab aa aa aa    	imul   $0xaaaaaaab,%edx,%edx
    34ba:	39 d1                	cmp    %edx,%ecx
    34bc:	0f 8c 1a fd ff ff    	jl     31dc <_ZN4Mesh12compute_normEv+0x11c>
    34c2:	e9 99 fc ff ff       	jmp    3160 <_ZN4Mesh12compute_normEv+0xa0>
    34c7:	48 8b 43 10          	mov    0x10(%rbx),%rax
    34cb:	48 3b 43 08          	cmp    0x8(%rbx),%rax
    34cf:	74 39                	je     350a <_ZN4Mesh12compute_normEv+0x44a>
    34d1:	bd 01 00 00 00       	mov    $0x1,%ebp
    34d6:	31 c0                	xor    %eax,%eax
    34d8:	0f 1f 84 00 00 00 00 	nopl   0x0(%rax,%rax,1)
    34df:	00 
    34e0:	48 8d 3c 40          	lea    (%rax,%rax,2),%rdi
    34e4:	48 c1 e7 03          	shl    $0x3,%rdi
    34e8:	48 03 7b 20          	add    0x20(%rbx),%rdi
    34ec:	e8 af f2 ff ff       	call   27a0 <_ZN7CompFab10Vec3Struct9normalizeEv>
    34f1:	89 e8                	mov    %ebp,%eax
    34f3:	48 8b 4b 10          	mov    0x10(%rbx),%rcx
    34f7:	48 2b 4b 08          	sub    0x8(%rbx),%rcx
    34fb:	48 c1 f9 03          	sar    $0x3,%rcx
    34ff:	49 0f af cf          	imul   %r15,%rcx
    3503:	ff c5                	inc    %ebp
    3505:	48 39 c1             	cmp    %rax,%rcx
    3508:	77 d6                	ja     34e0 <_ZN4Mesh12compute_normEv+0x420>
    350a:	48 83 c4 68          	add    $0x68,%rsp
    350e:	5b                   	pop    %rbx
    350f:	41 5c                	pop    %r12
    3511:	41 5d                	pop    %r13
    3513:	41 5e                	pop    %r14
    3515:	41 5f                	pop    %r15
    3517:	5d                   	pop    %rbp
    3518:	c3                   	ret    
    3519:	0f 1f 80 00 00 00 00 	nopl   0x0(%rax)

0000000000003520 <_ZN4MeshC1EPKN7CompFab10Vec3StructEPKNS0_11Vec3iStructE>:
    3520:	41 57                	push   %r15
    3522:	41 56                	push   %r14
    3524:	41 55                	push   %r13
    3526:	41 54                	push   %r12
    3528:	53                   	push   %rbx
    3529:	49 89 d6             	mov    %rdx,%r14
    352c:	49 89 f7             	mov    %rsi,%r15
    352f:	48 89 fb             	mov    %rdi,%rbx
    3532:	48 8d 05 4f a8 00 00 	lea    0xa84f(%rip),%rax        # dd88 <_ZTV4Mesh+0x10>
    3539:	48 89 07             	mov    %rax,(%rdi)
    353c:	4c 8d 6f 08          	lea    0x8(%rdi),%r13
    3540:	0f 57 c0             	xorps  %xmm0,%xmm0
    3543:	0f 11 47 08          	movups %xmm0,0x8(%rdi)
    3547:	0f 11 47 18          	movups %xmm0,0x18(%rdi)
    354b:	0f 11 47 28          	movups %xmm0,0x28(%rdi)
    354f:	0f 11 47 38          	movups %xmm0,0x38(%rdi)
    3553:	0f 11 47 48          	movups %xmm0,0x48(%rdi)
    3557:	0f 11 47 58          	movups %xmm0,0x58(%rdi)
    355b:	0f 11 47 68          	movups %xmm0,0x68(%rdi)
    355f:	48 c7 47 78 00 00 00 	movq   $0x0,0x78(%rdi)
    3566:	00 
    3567:	bf c0 00 00 00       	mov    $0xc0,%edi
    356c:	e8 2f ec ff ff       	call   21a0 <_Znwm@plt>
    3571:	49 89 c4             	mov    %rax,%r12
    3574:	ba c0 00 00 00       	mov    $0xc0,%edx
    3579:	48 89 c7             	mov    %rax,%rdi
    357c:	4c 89 fe             	mov    %r15,%rsi
    357f:	e8 cc eb ff ff       	call   2150 <memcpy@plt>
    3584:	48 8b 7b 08          	mov    0x8(%rbx),%rdi
    3588:	48 85 ff             	test   %rdi,%rdi
    358b:	74 05                	je     3592 <_ZN4MeshC1EPKN7CompFab10Vec3StructEPKNS0_11Vec3iStructE+0x72>
    358d:	e8 ee eb ff ff       	call   2180 <_ZdlPv@plt>
    3592:	4c 89 63 08          	mov    %r12,0x8(%rbx)
    3596:	49 81 c4 c0 00 00 00 	add    $0xc0,%r12
    359d:	4c 89 63 10          	mov    %r12,0x10(%rbx)
    35a1:	4c 89 63 18          	mov    %r12,0x18(%rbx)
    35a5:	4c 8b 7b 68          	mov    0x68(%rbx),%r15
    35a9:	48 8b 43 78          	mov    0x78(%rbx),%rax
    35ad:	4c 29 f8             	sub    %r15,%rax
    35b0:	48 c1 f8 02          	sar    $0x2,%rax
    35b4:	48 b9 ab aa aa aa aa 	movabs $0xaaaaaaaaaaaaaaab,%rcx
    35bb:	aa aa aa 
    35be:	48 0f af c1          	imul   %rcx,%rax
    35c2:	48 83 f8 0b          	cmp    $0xb,%rax
    35c6:	77 43                	ja     360b <_ZN4MeshC1EPKN7CompFab10Vec3StructEPKNS0_11Vec3iStructE+0xeb>
    35c8:	bf 90 00 00 00       	mov    $0x90,%edi
    35cd:	e8 ce eb ff ff       	call   21a0 <_Znwm@plt>
    35d2:	49 89 c7             	mov    %rax,%r15
    35d5:	ba 90 00 00 00       	mov    $0x90,%edx
    35da:	48 89 c7             	mov    %rax,%rdi
    35dd:	4c 89 f6             	mov    %r14,%rsi
    35e0:	e8 6b eb ff ff       	call   2150 <memcpy@plt>
    35e5:	48 8b 7b 68          	mov    0x68(%rbx),%rdi
    35e9:	48 85 ff             	test   %rdi,%rdi
    35ec:	74 05                	je     35f3 <_ZN4MeshC1EPKN7CompFab10Vec3StructEPKNS0_11Vec3iStructE+0xd3>
    35ee:	e8 8d eb ff ff       	call   2180 <_ZdlPv@plt>
    35f3:	4c 89 7b 68          	mov    %r15,0x68(%rbx)
    35f7:	49 81 c7 90 00 00 00 	add    $0x90,%r15
    35fe:	4c 89 7b 70          	mov    %r15,0x70(%rbx)
    3602:	4c 89 7b 78          	mov    %r15,0x78(%rbx)
    3606:	e9 1d 01 00 00       	jmp    3728 <_ZN4MeshC1EPKN7CompFab10Vec3StructEPKNS0_11Vec3iStructE+0x208>
    360b:	48 8b 43 70          	mov    0x70(%rbx),%rax
    360f:	48 89 c2             	mov    %rax,%rdx
    3612:	4c 29 fa             	sub    %r15,%rdx
    3615:	49 89 d4             	mov    %rdx,%r12
    3618:	49 c1 fc 02          	sar    $0x2,%r12
    361c:	4c 0f af e1          	imul   %rcx,%r12
    3620:	49 83 fc 0c          	cmp    $0xc,%r12
    3624:	73 6a                	jae    3690 <_ZN4MeshC1EPKN7CompFab10Vec3StructEPKNS0_11Vec3iStructE+0x170>
    3626:	4c 39 f8             	cmp    %r15,%rax
    3629:	0f 84 84 00 00 00    	je     36b3 <_ZN4MeshC1EPKN7CompFab10Vec3StructEPKNS0_11Vec3iStructE+0x193>
    362f:	4c 89 ff             	mov    %r15,%rdi
    3632:	4c 89 f6             	mov    %r14,%rsi
    3635:	e8 76 ec ff ff       	call   22b0 <memmove@plt>
    363a:	48 8b 43 70          	mov    0x70(%rbx),%rax
    363e:	44 89 e1             	mov    %r12d,%ecx
    3641:	f7 d9                	neg    %ecx
    3643:	83 e1 03             	and    $0x3,%ecx
    3646:	74 78                	je     36c0 <_ZN4MeshC1EPKN7CompFab10Vec3StructEPKNS0_11Vec3iStructE+0x1a0>
    3648:	4b 8d 14 64          	lea    (%r12,%r12,2),%rdx
    364c:	49 8d 14 96          	lea    (%r14,%rdx,4),%rdx
    3650:	48 c1 e1 02          	shl    $0x2,%rcx
    3654:	48 8d 3c 49          	lea    (%rcx,%rcx,2),%rdi
    3658:	31 f6                	xor    %esi,%esi
    365a:	4c 89 e1             	mov    %r12,%rcx
    365d:	0f 1f 00             	nopl   (%rax)
    3660:	44 8b 44 32 08       	mov    0x8(%rdx,%rsi,1),%r8d
    3665:	44 89 44 30 08       	mov    %r8d,0x8(%rax,%rsi,1)
    366a:	4c 8b 04 32          	mov    (%rdx,%rsi,1),%r8
    366e:	4c 89 04 30          	mov    %r8,(%rax,%rsi,1)
    3672:	48 ff c1             	inc    %rcx
    3675:	48 83 c6 0c          	add    $0xc,%rsi
    3679:	48 39 f7             	cmp    %rsi,%rdi
    367c:	75 e2                	jne    3660 <_ZN4MeshC1EPKN7CompFab10Vec3StructEPKNS0_11Vec3iStructE+0x140>
    367e:	48 01 f0             	add    %rsi,%rax
    3681:	49 83 c4 f7          	add    $0xfffffffffffffff7,%r12
    3685:	49 83 fc 03          	cmp    $0x3,%r12
    3689:	73 42                	jae    36cd <_ZN4MeshC1EPKN7CompFab10Vec3StructEPKNS0_11Vec3iStructE+0x1ad>
    368b:	e9 94 00 00 00       	jmp    3724 <_ZN4MeshC1EPKN7CompFab10Vec3StructEPKNS0_11Vec3iStructE+0x204>
    3690:	ba 90 00 00 00       	mov    $0x90,%edx
    3695:	4c 89 ff             	mov    %r15,%rdi
    3698:	4c 89 f6             	mov    %r14,%rsi
    369b:	e8 10 ec ff ff       	call   22b0 <memmove@plt>
    36a0:	49 81 c7 90 00 00 00 	add    $0x90,%r15
    36a7:	4c 39 7b 70          	cmp    %r15,0x70(%rbx)
    36ab:	74 7b                	je     3728 <_ZN4MeshC1EPKN7CompFab10Vec3StructEPKNS0_11Vec3iStructE+0x208>
    36ad:	4c 89 7b 70          	mov    %r15,0x70(%rbx)
    36b1:	eb 75                	jmp    3728 <_ZN4MeshC1EPKN7CompFab10Vec3StructEPKNS0_11Vec3iStructE+0x208>
    36b3:	45 31 e4             	xor    %r12d,%r12d
    36b6:	44 89 e1             	mov    %r12d,%ecx
    36b9:	f7 d9                	neg    %ecx
    36bb:	83 e1 03             	and    $0x3,%ecx
    36be:	75 88                	jne    3648 <_ZN4MeshC1EPKN7CompFab10Vec3StructEPKNS0_11Vec3iStructE+0x128>
    36c0:	4c 89 e1             	mov    %r12,%rcx
    36c3:	49 83 c4 f7          	add    $0xfffffffffffffff7,%r12
    36c7:	49 83 fc 03          	cmp    $0x3,%r12
    36cb:	72 57                	jb     3724 <_ZN4MeshC1EPKN7CompFab10Vec3StructEPKNS0_11Vec3iStructE+0x204>
    36cd:	48 8d 14 49          	lea    (%rcx,%rcx,2),%rdx
    36d1:	48 83 c1 f4          	add    $0xfffffffffffffff4,%rcx
    36d5:	49 8d 14 96          	lea    (%r14,%rdx,4),%rdx
    36d9:	0f 1f 80 00 00 00 00 	nopl   0x0(%rax)
    36e0:	8b 72 08             	mov    0x8(%rdx),%esi
    36e3:	89 70 08             	mov    %esi,0x8(%rax)
    36e6:	48 8b 32             	mov    (%rdx),%rsi
    36e9:	48 89 30             	mov    %rsi,(%rax)
    36ec:	8b 72 14             	mov    0x14(%rdx),%esi
    36ef:	89 70 14             	mov    %esi,0x14(%rax)
    36f2:	48 8b 72 0c          	mov    0xc(%rdx),%rsi
    36f6:	48 89 70 0c          	mov    %rsi,0xc(%rax)
    36fa:	8b 72 20             	mov    0x20(%rdx),%esi
    36fd:	89 70 20             	mov    %esi,0x20(%rax)
    3700:	48 8b 72 18          	mov    0x18(%rdx),%rsi
    3704:	48 89 70 18          	mov    %rsi,0x18(%rax)
    3708:	48 8b 72 24          	mov    0x24(%rdx),%rsi
    370c:	48 89 70 24          	mov    %rsi,0x24(%rax)
    3710:	8b 72 2c             	mov    0x2c(%rdx),%esi
    3713:	89 70 2c             	mov    %esi,0x2c(%rax)
    3716:	48 83 c0 30          	add    $0x30,%rax
    371a:	48 83 c2 30          	add    $0x30,%rdx
    371e:	48 83 c1 04          	add    $0x4,%rcx
    3722:	75 bc                	jne    36e0 <_ZN4MeshC1EPKN7CompFab10Vec3StructEPKNS0_11Vec3iStructE+0x1c0>
    3724:	48 89 43 70          	mov    %rax,0x70(%rbx)
    3728:	48 89 df             	mov    %rbx,%rdi
    372b:	e8 90 f9 ff ff       	call   30c0 <_ZN4Mesh12compute_normEv>
    3730:	5b                   	pop    %rbx
    3731:	41 5c                	pop    %r12
    3733:	41 5d                	pop    %r13
    3735:	41 5e                	pop    %r14
    3737:	41 5f                	pop    %r15
    3739:	c3                   	ret    
    373a:	49 89 c6             	mov    %rax,%r14
    373d:	48 8b 7b 68          	mov    0x68(%rbx),%rdi
    3741:	48 85 ff             	test   %rdi,%rdi
    3744:	75 2c                	jne    3772 <_ZN4MeshC1EPKN7CompFab10Vec3StructEPKNS0_11Vec3iStructE+0x252>
    3746:	48 8b 7b 50          	mov    0x50(%rbx),%rdi
    374a:	48 85 ff             	test   %rdi,%rdi
    374d:	75 31                	jne    3780 <_ZN4MeshC1EPKN7CompFab10Vec3StructEPKNS0_11Vec3iStructE+0x260>
    374f:	48 8b 7b 38          	mov    0x38(%rbx),%rdi
    3753:	48 85 ff             	test   %rdi,%rdi
    3756:	75 36                	jne    378e <_ZN4MeshC1EPKN7CompFab10Vec3StructEPKNS0_11Vec3iStructE+0x26e>
    3758:	48 8b 7b 20          	mov    0x20(%rbx),%rdi
    375c:	48 85 ff             	test   %rdi,%rdi
    375f:	75 3b                	jne    379c <_ZN4MeshC1EPKN7CompFab10Vec3StructEPKNS0_11Vec3iStructE+0x27c>
    3761:	49 8b 7d 00          	mov    0x0(%r13),%rdi
    3765:	48 85 ff             	test   %rdi,%rdi
    3768:	75 40                	jne    37aa <_ZN4MeshC1EPKN7CompFab10Vec3StructEPKNS0_11Vec3iStructE+0x28a>
    376a:	4c 89 f7             	mov    %r14,%rdi
    376d:	e8 9e eb ff ff       	call   2310 <_Unwind_Resume@plt>
    3772:	e8 09 ea ff ff       	call   2180 <_ZdlPv@plt>
    3777:	48 8b 7b 50          	mov    0x50(%rbx),%rdi
    377b:	48 85 ff             	test   %rdi,%rdi
    377e:	74 cf                	je     374f <_ZN4MeshC1EPKN7CompFab10Vec3StructEPKNS0_11Vec3iStructE+0x22f>
    3780:	e8 fb e9 ff ff       	call   2180 <_ZdlPv@plt>
    3785:	48 8b 7b 38          	mov    0x38(%rbx),%rdi
    3789:	48 85 ff             	test   %rdi,%rdi
    378c:	74 ca                	je     3758 <_ZN4MeshC1EPKN7CompFab10Vec3StructEPKNS0_11Vec3iStructE+0x238>
    378e:	e8 ed e9 ff ff       	call   2180 <_ZdlPv@plt>
    3793:	48 8b 7b 20          	mov    0x20(%rbx),%rdi
    3797:	48 85 ff             	test   %rdi,%rdi
    379a:	74 c5                	je     3761 <_ZN4MeshC1EPKN7CompFab10Vec3StructEPKNS0_11Vec3iStructE+0x241>
    379c:	e8 df e9 ff ff       	call   2180 <_ZdlPv@plt>
    37a1:	49 8b 7d 00          	mov    0x0(%r13),%rdi
    37a5:	48 85 ff             	test   %rdi,%rdi
    37a8:	74 c0                	je     376a <_ZN4MeshC1EPKN7CompFab10Vec3StructEPKNS0_11Vec3iStructE+0x24a>
    37aa:	e8 d1 e9 ff ff       	call   2180 <_ZdlPv@plt>
    37af:	4c 89 f7             	mov    %r14,%rdi
    37b2:	e8 59 eb ff ff       	call   2310 <_Unwind_Resume@plt>
    37b7:	66 0f 1f 84 00 00 00 	nopw   0x0(%rax,%rax,1)
    37be:	00 00 

00000000000037c0 <_ZN4Mesh4saveERSoPSt6vectorIN7CompFab10Vec3StructESaIS3_EE>:
    37c0:	55                   	push   %rbp
    37c1:	41 57                	push   %r15
    37c3:	41 56                	push   %r14
    37c5:	41 55                	push   %r13
    37c7:	41 54                	push   %r12
    37c9:	53                   	push   %rbx
    37ca:	48 81 ec 98 00 00 00 	sub    $0x98,%rsp
    37d1:	48 89 74 24 10       	mov    %rsi,0x10(%rsp)
    37d6:	49 89 fe             	mov    %rdi,%r14
    37d9:	48 8d 44 24 68       	lea    0x68(%rsp),%rax
    37de:	48 89 44 24 58       	mov    %rax,0x58(%rsp)
    37e3:	66 c7 44 24 68 76 00 	movw   $0x76,0x68(%rsp)
    37ea:	48 c7 44 24 60 01 00 	movq   $0x1,0x60(%rsp)
    37f1:	00 00 
    37f3:	48 8d 44 24 28       	lea    0x28(%rsp),%rax
    37f8:	48 89 44 24 18       	mov    %rax,0x18(%rsp)
    37fd:	66 c7 44 24 28 66 00 	movw   $0x66,0x28(%rsp)
    3804:	48 c7 44 24 20 01 00 	movq   $0x1,0x20(%rsp)
    380b:	00 00 
    380d:	48 8d 44 24 48       	lea    0x48(%rsp),%rax
    3812:	48 89 44 24 38       	mov    %rax,0x38(%rsp)
    3817:	66 c7 44 24 48 76 74 	movw   $0x7476,0x48(%rsp)
    381e:	48 c7 44 24 40 02 00 	movq   $0x2,0x40(%rsp)
    3825:	00 00 
    3827:	c6 44 24 4a 00       	movb   $0x0,0x4a(%rsp)
    382c:	48 8d 84 24 88 00 00 	lea    0x88(%rsp),%rax
    3833:	00 
    3834:	48 89 44 24 78       	mov    %rax,0x78(%rsp)
    3839:	48 c7 84 24 80 00 00 	movq   $0x0,0x80(%rsp)
    3840:	00 00 00 00 00 
    3845:	c6 84 24 88 00 00 00 	movb   $0x0,0x88(%rsp)
    384c:	00 
    384d:	48 8d 6f 08          	lea    0x8(%rdi),%rbp
    3851:	48 85 d2             	test   %rdx,%rdx
    3854:	48 0f 45 ea          	cmovne %rdx,%rbp
    3858:	48 8b 45 08          	mov    0x8(%rbp),%rax
    385c:	48 3b 45 00          	cmp    0x0(%rbp),%rax
    3860:	0f 84 dd 00 00 00    	je     3943 <_ZN4Mesh4saveERSoPSt6vectorIN7CompFab10Vec3StructESaIS3_EE+0x183>
    3866:	45 31 e4             	xor    %r12d,%r12d
    3869:	4c 8d 3d 99 7a 00 00 	lea    0x7a99(%rip),%r15        # b309 <_ZTS4Mesh+0x16b>
    3870:	31 db                	xor    %ebx,%ebx
    3872:	66 66 66 66 66 2e 0f 	data16 data16 data16 data16 cs nopw 0x0(%rax,%rax,1)
    3879:	1f 84 00 00 00 00 00 
    3880:	48 8b 74 24 58       	mov    0x58(%rsp),%rsi
    3885:	48 8b 54 24 60       	mov    0x60(%rsp),%rdx
    388a:	48 8b 7c 24 10       	mov    0x10(%rsp),%rdi
    388f:	e8 4c e9 ff ff       	call   21e0 <_ZSt16__ostream_insertIcSt11char_traitsIcEERSt13basic_ostreamIT_T0_ES6_PKS3_l@plt>
    3894:	49 89 c5             	mov    %rax,%r13
    3897:	ba 01 00 00 00       	mov    $0x1,%edx
    389c:	48 89 c7             	mov    %rax,%rdi
    389f:	4c 89 fe             	mov    %r15,%rsi
    38a2:	e8 39 e9 ff ff       	call   21e0 <_ZSt16__ostream_insertIcSt11char_traitsIcEERSt13basic_ostreamIT_T0_ES6_PKS3_l@plt>
    38a7:	48 8b 45 00          	mov    0x0(%rbp),%rax
    38ab:	f2 42 0f 10 04 20    	movsd  (%rax,%r12,1),%xmm0
    38b1:	4c 89 ef             	mov    %r13,%rdi
    38b4:	e8 e7 e9 ff ff       	call   22a0 <_ZNSo9_M_insertIdEERSoT_@plt>
    38b9:	49 89 c5             	mov    %rax,%r13
    38bc:	ba 01 00 00 00       	mov    $0x1,%edx
    38c1:	48 89 c7             	mov    %rax,%rdi
    38c4:	4c 89 fe             	mov    %r15,%rsi
    38c7:	e8 14 e9 ff ff       	call   21e0 <_ZSt16__ostream_insertIcSt11char_traitsIcEERSt13basic_ostreamIT_T0_ES6_PKS3_l@plt>
    38cc:	48 8b 45 00          	mov    0x0(%rbp),%rax
    38d0:	f2 42 0f 10 44 20 08 	movsd  0x8(%rax,%r12,1),%xmm0
    38d7:	4c 89 ef             	mov    %r13,%rdi
    38da:	e8 c1 e9 ff ff       	call   22a0 <_ZNSo9_M_insertIdEERSoT_@plt>
    38df:	49 89 c5             	mov    %rax,%r13
    38e2:	ba 01 00 00 00       	mov    $0x1,%edx
    38e7:	48 89 c7             	mov    %rax,%rdi
    38ea:	4c 89 fe             	mov    %r15,%rsi
    38ed:	e8 ee e8 ff ff       	call   21e0 <_ZSt16__ostream_insertIcSt11char_traitsIcEERSt13basic_ostreamIT_T0_ES6_PKS3_l@plt>
    38f2:	48 8b 45 00          	mov    0x0(%rbp),%rax
    38f6:	f2 42 0f 10 44 20 10 	movsd  0x10(%rax,%r12,1),%xmm0
    38fd:	4c 89 ef             	mov    %r13,%rdi
    3900:	e8 9b e9 ff ff       	call   22a0 <_ZNSo9_M_insertIdEERSoT_@plt>
    3905:	ba 01 00 00 00       	mov    $0x1,%edx
    390a:	48 89 c7             	mov    %rax,%rdi
    390d:	48 8d 35 1d 7a 00 00 	lea    0x7a1d(%rip),%rsi        # b331 <_ZTS4Mesh+0x193>
    3914:	e8 c7 e8 ff ff       	call   21e0 <_ZSt16__ostream_insertIcSt11char_traitsIcEERSt13basic_ostreamIT_T0_ES6_PKS3_l@plt>
    3919:	48 ff c3             	inc    %rbx
    391c:	48 8b 45 08          	mov    0x8(%rbp),%rax
    3920:	48 2b 45 00          	sub    0x0(%rbp),%rax
    3924:	48 c1 f8 03          	sar    $0x3,%rax
    3928:	48 b9 ab aa aa aa aa 	movabs $0xaaaaaaaaaaaaaaab,%rcx
    392f:	aa aa aa 
    3932:	48 0f af c1          	imul   %rcx,%rax
    3936:	49 83 c4 18          	add    $0x18,%r12
    393a:	48 39 c3             	cmp    %rax,%rbx
    393d:	0f 82 3d ff ff ff    	jb     3880 <_ZN4Mesh4saveERSoPSt6vectorIN7CompFab10Vec3StructESaIS3_EE+0xc0>
    3943:	49 8b 46 40          	mov    0x40(%r14),%rax
    3947:	49 3b 46 38          	cmp    0x38(%r14),%rax
    394b:	0f 84 0e 02 00 00    	je     3b5f <_ZN4Mesh4saveERSoPSt6vectorIN7CompFab10Vec3StructESaIS3_EE+0x39f>
    3951:	31 db                	xor    %ebx,%ebx
    3953:	4c 8d 3d af 79 00 00 	lea    0x79af(%rip),%r15        # b309 <_ZTS4Mesh+0x16b>
    395a:	4c 8d 25 d0 79 00 00 	lea    0x79d0(%rip),%r12        # b331 <_ZTS4Mesh+0x193>
    3961:	66 66 66 66 66 66 2e 	data16 data16 data16 data16 data16 cs nopw 0x0(%rax,%rax,1)
    3968:	0f 1f 84 00 00 00 00 
    396f:	00 
    3970:	48 8b 74 24 38       	mov    0x38(%rsp),%rsi
    3975:	48 8b 54 24 40       	mov    0x40(%rsp),%rdx
    397a:	48 8b 7c 24 10       	mov    0x10(%rsp),%rdi
    397f:	e8 5c e8 ff ff       	call   21e0 <_ZSt16__ostream_insertIcSt11char_traitsIcEERSt13basic_ostreamIT_T0_ES6_PKS3_l@plt>
    3984:	49 89 c5             	mov    %rax,%r13
    3987:	ba 01 00 00 00       	mov    $0x1,%edx
    398c:	48 89 c7             	mov    %rax,%rdi
    398f:	4c 89 fe             	mov    %r15,%rsi
    3992:	e8 49 e8 ff ff       	call   21e0 <_ZSt16__ostream_insertIcSt11char_traitsIcEERSt13basic_ostreamIT_T0_ES6_PKS3_l@plt>
    3997:	49 8b 46 38          	mov    0x38(%r14),%rax
    399b:	f3 0f 10 04 d8       	movss  (%rax,%rbx,8),%xmm0
    39a0:	f3 0f 5a c0          	cvtss2sd %xmm0,%xmm0
    39a4:	4c 89 ef             	mov    %r13,%rdi
    39a7:	e8 f4 e8 ff ff       	call   22a0 <_ZNSo9_M_insertIdEERSoT_@plt>
    39ac:	49 89 c5             	mov    %rax,%r13
    39af:	ba 01 00 00 00       	mov    $0x1,%edx
    39b4:	48 89 c7             	mov    %rax,%rdi
    39b7:	4c 89 fe             	mov    %r15,%rsi
    39ba:	e8 21 e8 ff ff       	call   21e0 <_ZSt16__ostream_insertIcSt11char_traitsIcEERSt13basic_ostreamIT_T0_ES6_PKS3_l@plt>
    39bf:	49 8b 46 38          	mov    0x38(%r14),%rax
    39c3:	f3 0f 10 44 d8 04    	movss  0x4(%rax,%rbx,8),%xmm0
    39c9:	f3 0f 5a c0          	cvtss2sd %xmm0,%xmm0
    39cd:	4c 89 ef             	mov    %r13,%rdi
    39d0:	e8 cb e8 ff ff       	call   22a0 <_ZNSo9_M_insertIdEERSoT_@plt>
    39d5:	ba 01 00 00 00       	mov    $0x1,%edx
    39da:	48 89 c7             	mov    %rax,%rdi
    39dd:	4c 89 e6             	mov    %r12,%rsi
    39e0:	e8 fb e7 ff ff       	call   21e0 <_ZSt16__ostream_insertIcSt11char_traitsIcEERSt13basic_ostreamIT_T0_ES6_PKS3_l@plt>
    39e5:	48 ff c3             	inc    %rbx
    39e8:	49 8b 46 40          	mov    0x40(%r14),%rax
    39ec:	49 2b 46 38          	sub    0x38(%r14),%rax
    39f0:	48 c1 f8 03          	sar    $0x3,%rax
    39f4:	48 39 c3             	cmp    %rax,%rbx
    39f7:	0f 82 73 ff ff ff    	jb     3970 <_ZN4Mesh4saveERSoPSt6vectorIN7CompFab10Vec3StructESaIS3_EE+0x1b0>
    39fd:	49 8b 46 70          	mov    0x70(%r14),%rax
    3a01:	49 3b 46 68          	cmp    0x68(%r14),%rax
    3a05:	0f 84 31 02 00 00    	je     3c3c <_ZN4Mesh4saveERSoPSt6vectorIN7CompFab10Vec3StructESaIS3_EE+0x47c>
    3a0b:	45 31 ed             	xor    %r13d,%r13d
    3a0e:	48 8d 1d f4 78 00 00 	lea    0x78f4(%rip),%rbx        # b309 <_ZTS4Mesh+0x16b>
    3a15:	4c 8d 64 24 0f       	lea    0xf(%rsp),%r12
    3a1a:	45 31 ff             	xor    %r15d,%r15d
    3a1d:	0f 1f 00             	nopl   (%rax)
    3a20:	48 8b 74 24 18       	mov    0x18(%rsp),%rsi
    3a25:	48 8b 54 24 20       	mov    0x20(%rsp),%rdx
    3a2a:	48 8b 7c 24 10       	mov    0x10(%rsp),%rdi
    3a2f:	e8 ac e7 ff ff       	call   21e0 <_ZSt16__ostream_insertIcSt11char_traitsIcEERSt13basic_ostreamIT_T0_ES6_PKS3_l@plt>
    3a34:	48 89 c5             	mov    %rax,%rbp
    3a37:	ba 01 00 00 00       	mov    $0x1,%edx
    3a3c:	48 89 c7             	mov    %rax,%rdi
    3a3f:	48 89 de             	mov    %rbx,%rsi
    3a42:	e8 99 e7 ff ff       	call   21e0 <_ZSt16__ostream_insertIcSt11char_traitsIcEERSt13basic_ostreamIT_T0_ES6_PKS3_l@plt>
    3a47:	49 8b 46 68          	mov    0x68(%r14),%rax
    3a4b:	42 8b 34 28          	mov    (%rax,%r13,1),%esi
    3a4f:	ff c6                	inc    %esi
    3a51:	48 89 ef             	mov    %rbp,%rdi
    3a54:	e8 97 e8 ff ff       	call   22f0 <_ZNSolsEi@plt>
    3a59:	c6 44 24 0f 2f       	movb   $0x2f,0xf(%rsp)
    3a5e:	ba 01 00 00 00       	mov    $0x1,%edx
    3a63:	48 89 c7             	mov    %rax,%rdi
    3a66:	4c 89 e6             	mov    %r12,%rsi
    3a69:	e8 72 e7 ff ff       	call   21e0 <_ZSt16__ostream_insertIcSt11char_traitsIcEERSt13basic_ostreamIT_T0_ES6_PKS3_l@plt>
    3a6e:	49 8b 4e 50          	mov    0x50(%r14),%rcx
    3a72:	42 8b 34 29          	mov    (%rcx,%r13,1),%esi
    3a76:	ff c6                	inc    %esi
    3a78:	48 89 c7             	mov    %rax,%rdi
    3a7b:	e8 70 e8 ff ff       	call   22f0 <_ZNSolsEi@plt>
    3a80:	48 89 c5             	mov    %rax,%rbp
    3a83:	ba 01 00 00 00       	mov    $0x1,%edx
    3a88:	48 89 c7             	mov    %rax,%rdi
    3a8b:	48 89 de             	mov    %rbx,%rsi
    3a8e:	e8 4d e7 ff ff       	call   21e0 <_ZSt16__ostream_insertIcSt11char_traitsIcEERSt13basic_ostreamIT_T0_ES6_PKS3_l@plt>
    3a93:	49 8b 46 68          	mov    0x68(%r14),%rax
    3a97:	42 8b 74 28 04       	mov    0x4(%rax,%r13,1),%esi
    3a9c:	ff c6                	inc    %esi
    3a9e:	48 89 ef             	mov    %rbp,%rdi
    3aa1:	e8 4a e8 ff ff       	call   22f0 <_ZNSolsEi@plt>
    3aa6:	c6 44 24 0f 2f       	movb   $0x2f,0xf(%rsp)
    3aab:	ba 01 00 00 00       	mov    $0x1,%edx
    3ab0:	48 89 c7             	mov    %rax,%rdi
    3ab3:	4c 89 e6             	mov    %r12,%rsi
    3ab6:	e8 25 e7 ff ff       	call   21e0 <_ZSt16__ostream_insertIcSt11char_traitsIcEERSt13basic_ostreamIT_T0_ES6_PKS3_l@plt>
    3abb:	49 8b 4e 50          	mov    0x50(%r14),%rcx
    3abf:	42 8b 74 29 04       	mov    0x4(%rcx,%r13,1),%esi
    3ac4:	ff c6                	inc    %esi
    3ac6:	48 89 c7             	mov    %rax,%rdi
    3ac9:	e8 22 e8 ff ff       	call   22f0 <_ZNSolsEi@plt>
    3ace:	48 89 c5             	mov    %rax,%rbp
    3ad1:	ba 01 00 00 00       	mov    $0x1,%edx
    3ad6:	48 89 c7             	mov    %rax,%rdi
    3ad9:	48 89 de             	mov    %rbx,%rsi
    3adc:	e8 ff e6 ff ff       	call   21e0 <_ZSt16__ostream_insertIcSt11char_traitsIcEERSt13basic_ostreamIT_T0_ES6_PKS3_l@plt>
    3ae1:	49 8b 46 68          	mov    0x68(%r14),%rax
    3ae5:	42 8b 74 28 08       	mov    0x8(%rax,%r13,1),%esi
    3aea:	ff c6                	inc    %esi
    3aec:	48 89 ef             	mov    %rbp,%rdi
    3aef:	e8 fc e7 ff ff       	call   22f0 <_ZNSolsEi@plt>
    3af4:	c6 44 24 0f 2f       	movb   $0x2f,0xf(%rsp)
    3af9:	ba 01 00 00 00       	mov    $0x1,%edx
    3afe:	48 89 c7             	mov    %rax,%rdi
    3b01:	4c 89 e6             	mov    %r12,%rsi
    3b04:	e8 d7 e6 ff ff       	call   21e0 <_ZSt16__ostream_insertIcSt11char_traitsIcEERSt13basic_ostreamIT_T0_ES6_PKS3_l@plt>
    3b09:	49 8b 4e 50          	mov    0x50(%r14),%rcx
    3b0d:	42 8b 74 29 08       	mov    0x8(%rcx,%r13,1),%esi
    3b12:	ff c6                	inc    %esi
    3b14:	48 89 c7             	mov    %rax,%rdi
    3b17:	e8 d4 e7 ff ff       	call   22f0 <_ZNSolsEi@plt>
    3b1c:	ba 01 00 00 00       	mov    $0x1,%edx
    3b21:	48 89 c7             	mov    %rax,%rdi
    3b24:	48 8d 35 06 78 00 00 	lea    0x7806(%rip),%rsi        # b331 <_ZTS4Mesh+0x193>
    3b2b:	e8 b0 e6 ff ff       	call   21e0 <_ZSt16__ostream_insertIcSt11char_traitsIcEERSt13basic_ostreamIT_T0_ES6_PKS3_l@plt>
    3b30:	49 ff c7             	inc    %r15
    3b33:	49 8b 46 70          	mov    0x70(%r14),%rax
    3b37:	49 2b 46 68          	sub    0x68(%r14),%rax
    3b3b:	48 c1 f8 02          	sar    $0x2,%rax
    3b3f:	48 b9 ab aa aa aa aa 	movabs $0xaaaaaaaaaaaaaaab,%rcx
    3b46:	aa aa aa 
    3b49:	48 0f af c1          	imul   %rcx,%rax
    3b4d:	49 83 c5 0c          	add    $0xc,%r13
    3b51:	49 39 c7             	cmp    %rax,%r15
    3b54:	0f 82 c6 fe ff ff    	jb     3a20 <_ZN4Mesh4saveERSoPSt6vectorIN7CompFab10Vec3StructESaIS3_EE+0x260>
    3b5a:	e9 dd 00 00 00       	jmp    3c3c <_ZN4Mesh4saveERSoPSt6vectorIN7CompFab10Vec3StructESaIS3_EE+0x47c>
    3b5f:	49 8b 46 70          	mov    0x70(%r14),%rax
    3b63:	49 3b 46 68          	cmp    0x68(%r14),%rax
    3b67:	0f 84 cf 00 00 00    	je     3c3c <_ZN4Mesh4saveERSoPSt6vectorIN7CompFab10Vec3StructESaIS3_EE+0x47c>
    3b6d:	31 ed                	xor    %ebp,%ebp
    3b6f:	4c 8d 3d 93 77 00 00 	lea    0x7793(%rip),%r15        # b309 <_ZTS4Mesh+0x16b>
    3b76:	48 8d 1d b4 77 00 00 	lea    0x77b4(%rip),%rbx        # b331 <_ZTS4Mesh+0x193>
    3b7d:	45 31 e4             	xor    %r12d,%r12d
    3b80:	48 8b 74 24 18       	mov    0x18(%rsp),%rsi
    3b85:	48 8b 54 24 20       	mov    0x20(%rsp),%rdx
    3b8a:	48 8b 7c 24 10       	mov    0x10(%rsp),%rdi
    3b8f:	e8 4c e6 ff ff       	call   21e0 <_ZSt16__ostream_insertIcSt11char_traitsIcEERSt13basic_ostreamIT_T0_ES6_PKS3_l@plt>
    3b94:	49 89 c5             	mov    %rax,%r13
    3b97:	ba 01 00 00 00       	mov    $0x1,%edx
    3b9c:	48 89 c7             	mov    %rax,%rdi
    3b9f:	4c 89 fe             	mov    %r15,%rsi
    3ba2:	e8 39 e6 ff ff       	call   21e0 <_ZSt16__ostream_insertIcSt11char_traitsIcEERSt13basic_ostreamIT_T0_ES6_PKS3_l@plt>
    3ba7:	49 8b 46 68          	mov    0x68(%r14),%rax
    3bab:	8b 34 28             	mov    (%rax,%rbp,1),%esi
    3bae:	ff c6                	inc    %esi
    3bb0:	4c 89 ef             	mov    %r13,%rdi
    3bb3:	e8 38 e7 ff ff       	call   22f0 <_ZNSolsEi@plt>
    3bb8:	49 89 c5             	mov    %rax,%r13
    3bbb:	ba 01 00 00 00       	mov    $0x1,%edx
    3bc0:	48 89 c7             	mov    %rax,%rdi
    3bc3:	4c 89 fe             	mov    %r15,%rsi
    3bc6:	e8 15 e6 ff ff       	call   21e0 <_ZSt16__ostream_insertIcSt11char_traitsIcEERSt13basic_ostreamIT_T0_ES6_PKS3_l@plt>
    3bcb:	49 8b 46 68          	mov    0x68(%r14),%rax
    3bcf:	8b 74 28 04          	mov    0x4(%rax,%rbp,1),%esi
    3bd3:	ff c6                	inc    %esi
    3bd5:	4c 89 ef             	mov    %r13,%rdi
    3bd8:	e8 13 e7 ff ff       	call   22f0 <_ZNSolsEi@plt>
    3bdd:	49 89 c5             	mov    %rax,%r13
    3be0:	ba 01 00 00 00       	mov    $0x1,%edx
    3be5:	48 89 c7             	mov    %rax,%rdi
    3be8:	4c 89 fe             	mov    %r15,%rsi
    3beb:	e8 f0 e5 ff ff       	call   21e0 <_ZSt16__ostream_insertIcSt11char_traitsIcEERSt13basic_ostreamIT_T0_ES6_PKS3_l@plt>
    3bf0:	49 8b 46 68          	mov    0x68(%r14),%rax
    3bf4:	8b 74 28 08          	mov    0x8(%rax,%rbp,1),%esi
    3bf8:	ff c6                	inc    %esi
    3bfa:	4c 89 ef             	mov    %r13,%rdi
    3bfd:	e8 ee e6 ff ff       	call   22f0 <_ZNSolsEi@plt>
    3c02:	ba 01 00 00 00       	mov    $0x1,%edx
    3c07:	48 89 c7             	mov    %rax,%rdi
    3c0a:	48 89 de             	mov    %rbx,%rsi
    3c0d:	e8 ce e5 ff ff       	call   21e0 <_ZSt16__ostream_insertIcSt11char_traitsIcEERSt13basic_ostreamIT_T0_ES6_PKS3_l@plt>
    3c12:	49 ff c4             	inc    %r12
    3c15:	49 8b 46 70          	mov    0x70(%r14),%rax
    3c19:	49 2b 46 68          	sub    0x68(%r14),%rax
    3c1d:	48 c1 f8 02          	sar    $0x2,%rax
    3c21:	48 b9 ab aa aa aa aa 	movabs $0xaaaaaaaaaaaaaaab,%rcx
    3c28:	aa aa aa 
    3c2b:	48 0f af c1          	imul   %rcx,%rax
    3c2f:	48 83 c5 0c          	add    $0xc,%rbp
    3c33:	49 39 c4             	cmp    %rax,%r12
    3c36:	0f 82 44 ff ff ff    	jb     3b80 <_ZN4Mesh4saveERSoPSt6vectorIN7CompFab10Vec3StructESaIS3_EE+0x3c0>
    3c3c:	48 8d 35 4d 74 00 00 	lea    0x744d(%rip),%rsi        # b090 <_IO_stdin_used+0x90>
    3c43:	ba 05 00 00 00       	mov    $0x5,%edx
    3c48:	48 8b 7c 24 10       	mov    0x10(%rsp),%rdi
    3c4d:	e8 8e e5 ff ff       	call   21e0 <_ZSt16__ostream_insertIcSt11char_traitsIcEERSt13basic_ostreamIT_T0_ES6_PKS3_l@plt>
    3c52:	48 8b 7c 24 78       	mov    0x78(%rsp),%rdi
    3c57:	48 8d 84 24 88 00 00 	lea    0x88(%rsp),%rax
    3c5e:	00 
    3c5f:	48 39 c7             	cmp    %rax,%rdi
    3c62:	74 05                	je     3c69 <_ZN4Mesh4saveERSoPSt6vectorIN7CompFab10Vec3StructESaIS3_EE+0x4a9>
    3c64:	e8 17 e5 ff ff       	call   2180 <_ZdlPv@plt>
    3c69:	48 8b 7c 24 38       	mov    0x38(%rsp),%rdi
    3c6e:	48 8d 44 24 48       	lea    0x48(%rsp),%rax
    3c73:	48 39 c7             	cmp    %rax,%rdi
    3c76:	74 05                	je     3c7d <_ZN4Mesh4saveERSoPSt6vectorIN7CompFab10Vec3StructESaIS3_EE+0x4bd>
    3c78:	e8 03 e5 ff ff       	call   2180 <_ZdlPv@plt>
    3c7d:	48 8b 7c 24 18       	mov    0x18(%rsp),%rdi
    3c82:	48 8d 44 24 28       	lea    0x28(%rsp),%rax
    3c87:	48 39 c7             	cmp    %rax,%rdi
    3c8a:	74 05                	je     3c91 <_ZN4Mesh4saveERSoPSt6vectorIN7CompFab10Vec3StructESaIS3_EE+0x4d1>
    3c8c:	e8 ef e4 ff ff       	call   2180 <_ZdlPv@plt>
    3c91:	48 8b 7c 24 58       	mov    0x58(%rsp),%rdi
    3c96:	48 8d 44 24 68       	lea    0x68(%rsp),%rax
    3c9b:	48 39 c7             	cmp    %rax,%rdi
    3c9e:	74 05                	je     3ca5 <_ZN4Mesh4saveERSoPSt6vectorIN7CompFab10Vec3StructESaIS3_EE+0x4e5>
    3ca0:	e8 db e4 ff ff       	call   2180 <_ZdlPv@plt>
    3ca5:	48 81 c4 98 00 00 00 	add    $0x98,%rsp
    3cac:	5b                   	pop    %rbx
    3cad:	41 5c                	pop    %r12
    3caf:	41 5d                	pop    %r13
    3cb1:	41 5e                	pop    %r14
    3cb3:	41 5f                	pop    %r15
    3cb5:	5d                   	pop    %rbp
    3cb6:	c3                   	ret    
    3cb7:	eb 06                	jmp    3cbf <_ZN4Mesh4saveERSoPSt6vectorIN7CompFab10Vec3StructESaIS3_EE+0x4ff>
    3cb9:	eb 04                	jmp    3cbf <_ZN4Mesh4saveERSoPSt6vectorIN7CompFab10Vec3StructESaIS3_EE+0x4ff>
    3cbb:	eb 02                	jmp    3cbf <_ZN4Mesh4saveERSoPSt6vectorIN7CompFab10Vec3StructESaIS3_EE+0x4ff>
    3cbd:	eb 00                	jmp    3cbf <_ZN4Mesh4saveERSoPSt6vectorIN7CompFab10Vec3StructESaIS3_EE+0x4ff>
    3cbf:	48 89 c3             	mov    %rax,%rbx
    3cc2:	48 8b 7c 24 78       	mov    0x78(%rsp),%rdi
    3cc7:	48 8d 84 24 88 00 00 	lea    0x88(%rsp),%rax
    3cce:	00 
    3ccf:	48 39 c7             	cmp    %rax,%rdi
    3cd2:	75 35                	jne    3d09 <_ZN4Mesh4saveERSoPSt6vectorIN7CompFab10Vec3StructESaIS3_EE+0x549>
    3cd4:	48 8b 7c 24 38       	mov    0x38(%rsp),%rdi
    3cd9:	48 8d 44 24 48       	lea    0x48(%rsp),%rax
    3cde:	48 39 c7             	cmp    %rax,%rdi
    3ce1:	75 3a                	jne    3d1d <_ZN4Mesh4saveERSoPSt6vectorIN7CompFab10Vec3StructESaIS3_EE+0x55d>
    3ce3:	48 8b 7c 24 18       	mov    0x18(%rsp),%rdi
    3ce8:	48 8d 44 24 28       	lea    0x28(%rsp),%rax
    3ced:	48 39 c7             	cmp    %rax,%rdi
    3cf0:	75 3f                	jne    3d31 <_ZN4Mesh4saveERSoPSt6vectorIN7CompFab10Vec3StructESaIS3_EE+0x571>
    3cf2:	48 8b 7c 24 58       	mov    0x58(%rsp),%rdi
    3cf7:	48 8d 44 24 68       	lea    0x68(%rsp),%rax
    3cfc:	48 39 c7             	cmp    %rax,%rdi
    3cff:	75 44                	jne    3d45 <_ZN4Mesh4saveERSoPSt6vectorIN7CompFab10Vec3StructESaIS3_EE+0x585>
    3d01:	48 89 df             	mov    %rbx,%rdi
    3d04:	e8 07 e6 ff ff       	call   2310 <_Unwind_Resume@plt>
    3d09:	e8 72 e4 ff ff       	call   2180 <_ZdlPv@plt>
    3d0e:	48 8b 7c 24 38       	mov    0x38(%rsp),%rdi
    3d13:	48 8d 44 24 48       	lea    0x48(%rsp),%rax
    3d18:	48 39 c7             	cmp    %rax,%rdi
    3d1b:	74 c6                	je     3ce3 <_ZN4Mesh4saveERSoPSt6vectorIN7CompFab10Vec3StructESaIS3_EE+0x523>
    3d1d:	e8 5e e4 ff ff       	call   2180 <_ZdlPv@plt>
    3d22:	48 8b 7c 24 18       	mov    0x18(%rsp),%rdi
    3d27:	48 8d 44 24 28       	lea    0x28(%rsp),%rax
    3d2c:	48 39 c7             	cmp    %rax,%rdi
    3d2f:	74 c1                	je     3cf2 <_ZN4Mesh4saveERSoPSt6vectorIN7CompFab10Vec3StructESaIS3_EE+0x532>
    3d31:	e8 4a e4 ff ff       	call   2180 <_ZdlPv@plt>
    3d36:	48 8b 7c 24 58       	mov    0x58(%rsp),%rdi
    3d3b:	48 8d 44 24 68       	lea    0x68(%rsp),%rax
    3d40:	48 39 c7             	cmp    %rax,%rdi
    3d43:	74 bc                	je     3d01 <_ZN4Mesh4saveERSoPSt6vectorIN7CompFab10Vec3StructESaIS3_EE+0x541>
    3d45:	e8 36 e4 ff ff       	call   2180 <_ZdlPv@plt>
    3d4a:	48 89 df             	mov    %rbx,%rdi
    3d4d:	e8 be e5 ff ff       	call   2310 <_Unwind_Resume@plt>
    3d52:	66 66 66 66 66 2e 0f 	data16 data16 data16 data16 cs nopw 0x0(%rax,%rax,1)
    3d59:	1f 84 00 00 00 00 00 

0000000000003d60 <_ZN4Mesh4saveEPKc>:
    3d60:	41 57                	push   %r15
    3d62:	41 56                	push   %r14
    3d64:	41 54                	push   %r12
    3d66:	53                   	push   %rbx
    3d67:	48 81 ec 08 02 00 00 	sub    $0x208,%rsp
    3d6e:	49 89 f4             	mov    %rsi,%r12
    3d71:	49 89 fe             	mov    %rdi,%r14
    3d74:	4c 8d 7c 24 08       	lea    0x8(%rsp),%r15
    3d79:	4c 89 ff             	mov    %r15,%rdi
    3d7c:	e8 5f e5 ff ff       	call   22e0 <_ZNSt14basic_ofstreamIcSt11char_traitsIcEEC1Ev@plt>
    3d81:	48 8d 5c 24 10       	lea    0x10(%rsp),%rbx
    3d86:	48 89 df             	mov    %rbx,%rdi
    3d89:	4c 89 e6             	mov    %r12,%rsi
    3d8c:	ba 10 00 00 00       	mov    $0x10,%edx
    3d91:	e8 da e3 ff ff       	call   2170 <_ZNSt13basic_filebufIcSt11char_traitsIcEE4openEPKcSt13_Ios_Openmode@plt>
    3d96:	48 8b 4c 24 08       	mov    0x8(%rsp),%rcx
    3d9b:	4c 03 79 e8          	add    -0x18(%rcx),%r15
    3d9f:	31 f6                	xor    %esi,%esi
    3da1:	48 85 c0             	test   %rax,%rax
    3da4:	75 07                	jne    3dad <_ZN4Mesh4saveEPKc+0x4d>
    3da6:	41 8b 77 20          	mov    0x20(%r15),%esi
    3daa:	83 ce 04             	or     $0x4,%esi
    3dad:	4c 89 ff             	mov    %r15,%rdi
    3db0:	e8 1b e5 ff ff       	call   22d0 <_ZNSt9basic_iosIcSt11char_traitsIcEE5clearESt12_Ios_Iostate@plt>
    3db5:	48 8d 74 24 08       	lea    0x8(%rsp),%rsi
    3dba:	4c 89 f7             	mov    %r14,%rdi
    3dbd:	31 d2                	xor    %edx,%edx
    3dbf:	e8 fc f9 ff ff       	call   37c0 <_ZN4Mesh4saveERSoPSt6vectorIN7CompFab10Vec3StructESaIS3_EE>
    3dc4:	48 89 df             	mov    %rbx,%rdi
    3dc7:	e8 84 e2 ff ff       	call   2050 <_ZNSt13basic_filebufIcSt11char_traitsIcEE5closeEv@plt>
    3dcc:	48 85 c0             	test   %rax,%rax
    3dcf:	75 1d                	jne    3dee <_ZN4Mesh4saveEPKc+0x8e>
    3dd1:	48 8b 44 24 08       	mov    0x8(%rsp),%rax
    3dd6:	48 8b 40 e8          	mov    -0x18(%rax),%rax
    3dda:	48 8d 3c 04          	lea    (%rsp,%rax,1),%rdi
    3dde:	48 83 c7 08          	add    $0x8,%rdi
    3de2:	8b 74 04 28          	mov    0x28(%rsp,%rax,1),%esi
    3de6:	83 ce 04             	or     $0x4,%esi
    3de9:	e8 e2 e4 ff ff       	call   22d0 <_ZNSt9basic_iosIcSt11char_traitsIcEE5clearESt12_Ios_Iostate@plt>
    3dee:	48 8d 7c 24 08       	lea    0x8(%rsp),%rdi
    3df3:	e8 78 e4 ff ff       	call   2270 <_ZNSt14basic_ofstreamIcSt11char_traitsIcEED1Ev@plt>
    3df8:	48 81 c4 08 02 00 00 	add    $0x208,%rsp
    3dff:	5b                   	pop    %rbx
    3e00:	41 5c                	pop    %r12
    3e02:	41 5e                	pop    %r14
    3e04:	41 5f                	pop    %r15
    3e06:	c3                   	ret    
    3e07:	48 89 c3             	mov    %rax,%rbx
    3e0a:	48 8d 7c 24 08       	lea    0x8(%rsp),%rdi
    3e0f:	e8 5c e4 ff ff       	call   2270 <_ZNSt14basic_ofstreamIcSt11char_traitsIcEED1Ev@plt>
    3e14:	48 89 df             	mov    %rbx,%rdi
    3e17:	e8 f4 e4 ff ff       	call   2310 <_Unwind_Resume@plt>
    3e1c:	0f 1f 40 00          	nopl   0x0(%rax)

0000000000003e20 <_ZN4Mesh4loadERSi>:
    3e20:	e9 0b 00 00 00       	jmp    3e30 <_ZN4Mesh8read_objERSi>
    3e25:	66 66 2e 0f 1f 84 00 	data16 cs nopw 0x0(%rax,%rax,1)
    3e2c:	00 00 00 00 

0000000000003e30 <_ZN4Mesh8read_objERSi>:
    3e30:	55                   	push   %rbp
    3e31:	41 57                	push   %r15
    3e33:	41 56                	push   %r14
    3e35:	41 55                	push   %r13
    3e37:	41 54                	push   %r12
    3e39:	53                   	push   %rbx
    3e3a:	48 81 ec 58 04 00 00 	sub    $0x458,%rsp
    3e41:	48 8d 44 24 78       	lea    0x78(%rsp),%rax
    3e46:	48 89 44 24 68       	mov    %rax,0x68(%rsp)
    3e4b:	48 c7 44 24 70 00 00 	movq   $0x0,0x70(%rsp)
    3e52:	00 00 
    3e54:	c6 44 24 78 00       	movb   $0x0,0x78(%rsp)
    3e59:	48 8d 84 24 30 01 00 	lea    0x130(%rsp),%rax
    3e60:	00 
    3e61:	48 89 84 24 20 01 00 	mov    %rax,0x120(%rsp)
    3e68:	00 
    3e69:	66 c7 84 24 30 01 00 	movw   $0x76,0x130(%rsp)
    3e70:	00 76 00 
    3e73:	48 c7 84 24 28 01 00 	movq   $0x1,0x128(%rsp)
    3e7a:	00 01 00 00 00 
    3e7f:	48 8d 84 24 10 01 00 	lea    0x110(%rsp),%rax
    3e86:	00 
    3e87:	48 89 84 24 00 01 00 	mov    %rax,0x100(%rsp)
    3e8e:	00 
    3e8f:	66 c7 84 24 10 01 00 	movw   $0x66,0x110(%rsp)
    3e96:	00 66 00 
    3e99:	48 c7 84 24 08 01 00 	movq   $0x1,0x108(%rsp)
    3ea0:	00 01 00 00 00 
    3ea5:	48 8d 84 24 f0 00 00 	lea    0xf0(%rsp),%rax
    3eac:	00 
    3ead:	48 89 84 24 e0 00 00 	mov    %rax,0xe0(%rsp)
    3eb4:	00 
    3eb5:	66 c7 84 24 f0 00 00 	movw   $0x7476,0xf0(%rsp)
    3ebc:	00 76 74 
    3ebf:	48 c7 84 24 e8 00 00 	movq   $0x2,0xe8(%rsp)
    3ec6:	00 02 00 00 00 
    3ecb:	c6 84 24 f2 00 00 00 	movb   $0x0,0xf2(%rsp)
    3ed2:	00 
    3ed3:	48 8d 84 24 98 00 00 	lea    0x98(%rsp),%rax
    3eda:	00 
    3edb:	48 89 84 24 88 00 00 	mov    %rax,0x88(%rsp)
    3ee2:	00 
    3ee3:	48 c7 84 24 90 00 00 	movq   $0x0,0x90(%rsp)
    3eea:	00 00 00 00 00 
    3eef:	c6 84 24 98 00 00 00 	movb   $0x0,0x98(%rsp)
    3ef6:	00 
    3ef7:	48 8b 06             	mov    (%rsi),%rax
    3efa:	48 8b 40 e8          	mov    -0x18(%rax),%rax
    3efe:	4c 8b bc 06 f0 00 00 	mov    0xf0(%rsi,%rax,1),%r15
    3f05:	00 
    3f06:	4d 85 ff             	test   %r15,%r15
    3f09:	0f 84 b7 13 00 00    	je     52c6 <_ZN4Mesh8read_objERSi+0x1496>
    3f0f:	48 89 f3             	mov    %rsi,%rbx
    3f12:	48 89 fd             	mov    %rdi,%rbp
    3f15:	48 8b 05 94 a0 00 00 	mov    0xa094(%rip),%rax        # dfb0 <_ZTTNSt7__cxx1118basic_stringstreamIcSt11char_traitsIcESaIcEEE@GLIBCXX_3.4.21>
    3f1c:	48 8b 08             	mov    (%rax),%rcx
    3f1f:	48 89 8c 24 d8 00 00 	mov    %rcx,0xd8(%rsp)
    3f26:	00 
    3f27:	48 8b 48 10          	mov    0x10(%rax),%rcx
    3f2b:	48 89 8c 24 d0 00 00 	mov    %rcx,0xd0(%rsp)
    3f32:	00 
    3f33:	48 8b 48 40          	mov    0x40(%rax),%rcx
    3f37:	48 89 8c 24 c8 00 00 	mov    %rcx,0xc8(%rsp)
    3f3e:	00 
    3f3f:	48 8b 48 48          	mov    0x48(%rax),%rcx
    3f43:	48 89 8c 24 c0 00 00 	mov    %rcx,0xc0(%rsp)
    3f4a:	00 
    3f4b:	48 8b 40 18          	mov    0x18(%rax),%rax
    3f4f:	48 89 84 24 b8 00 00 	mov    %rax,0xb8(%rsp)
    3f56:	00 
    3f57:	48 8b 05 92 a0 00 00 	mov    0xa092(%rip),%rax        # dff0 <_ZTVNSt7__cxx1115basic_stringbufIcSt11char_traitsIcESaIcEEE@GLIBCXX_3.4.21>
    3f5e:	48 83 c0 10          	add    $0x10,%rax
    3f62:	48 89 84 24 b0 00 00 	mov    %rax,0xb0(%rsp)
    3f69:	00 
    3f6a:	48 8b 05 4f a0 00 00 	mov    0xa04f(%rip),%rax        # dfc0 <_ZTVSt15basic_streambufIcSt11char_traitsIcEE@GLIBCXX_3.4>
    3f71:	48 83 c0 10          	add    $0x10,%rax
    3f75:	48 89 84 24 a8 00 00 	mov    %rax,0xa8(%rsp)
    3f7c:	00 
    3f7d:	4c 8d b4 24 d0 02 00 	lea    0x2d0(%rsp),%r14
    3f84:	00 
    3f85:	4c 8d ac 24 48 01 00 	lea    0x148(%rsp),%r13
    3f8c:	00 
    3f8d:	48 89 7c 24 20       	mov    %rdi,0x20(%rsp)
    3f92:	48 89 74 24 10       	mov    %rsi,0x10(%rsp)
    3f97:	eb 1f                	jmp    3fb8 <_ZN4Mesh8read_objERSi+0x188>
    3f99:	0f 1f 80 00 00 00 00 	nopl   0x0(%rax)
    3fa0:	48 8b 03             	mov    (%rbx),%rax
    3fa3:	48 8b 40 e8          	mov    -0x18(%rax),%rax
    3fa7:	4c 8b bc 03 f0 00 00 	mov    0xf0(%rbx,%rax,1),%r15
    3fae:	00 
    3faf:	4d 85 ff             	test   %r15,%r15
    3fb2:	0f 84 0e 13 00 00    	je     52c6 <_ZN4Mesh8read_objERSi+0x1496>
    3fb8:	41 80 7f 38 00       	cmpb   $0x0,0x38(%r15)
    3fbd:	74 11                	je     3fd0 <_ZN4Mesh8read_objERSi+0x1a0>
    3fbf:	41 0f b6 47 43       	movzbl 0x43(%r15),%eax
    3fc4:	eb 20                	jmp    3fe6 <_ZN4Mesh8read_objERSi+0x1b6>
    3fc6:	66 2e 0f 1f 84 00 00 	cs nopw 0x0(%rax,%rax,1)
    3fcd:	00 00 00 
    3fd0:	4c 89 ff             	mov    %r15,%rdi
    3fd3:	e8 18 e2 ff ff       	call   21f0 <_ZNKSt5ctypeIcE13_M_widen_initEv@plt>
    3fd8:	49 8b 07             	mov    (%r15),%rax
    3fdb:	4c 89 ff             	mov    %r15,%rdi
    3fde:	be 0a 00 00 00       	mov    $0xa,%esi
    3fe3:	ff 50 30             	call   *0x30(%rax)
    3fe6:	0f be d0             	movsbl %al,%edx
    3fe9:	48 89 df             	mov    %rbx,%rdi
    3fec:	48 8d 74 24 68       	lea    0x68(%rsp),%rsi
    3ff1:	e8 3a e3 ff ff       	call   2330 <_ZSt7getlineIcSt11char_traitsIcESaIcEERSt13basic_istreamIT_T0_ES7_RNSt7__cxx1112basic_stringIS4_S5_T1_EES4_@plt>
    3ff6:	48 8b 03             	mov    (%rbx),%rax
    3ff9:	48 8b 40 e8          	mov    -0x18(%rax),%rax
    3ffd:	f6 44 03 20 02       	testb  $0x2,0x20(%rbx,%rax,1)
    4002:	0f 85 de 11 00 00    	jne    51e6 <_ZN4Mesh8read_objERSi+0x13b6>
    4008:	48 8d 7c 24 68       	lea    0x68(%rsp),%rdi
    400d:	48 8d 35 82 70 00 00 	lea    0x7082(%rip),%rsi        # b096 <_IO_stdin_used+0x96>
    4014:	e8 67 e0 ff ff       	call   2080 <_ZNKSt7__cxx1112basic_stringIcSt11char_traitsIcESaIcEE7compareEPKc@plt>
    4019:	85 c0                	test   %eax,%eax
    401b:	0f 84 c5 11 00 00    	je     51e6 <_ZN4Mesh8read_objERSi+0x13b6>
    4021:	48 83 7c 24 70 02    	cmpq   $0x2,0x70(%rsp)
    4027:	0f 86 73 ff ff ff    	jbe    3fa0 <_ZN4Mesh8read_objERSi+0x170>
    402d:	48 8b 44 24 68       	mov    0x68(%rsp),%rax
    4032:	80 38 23             	cmpb   $0x23,(%rax)
    4035:	0f 84 65 ff ff ff    	je     3fa0 <_ZN4Mesh8read_objERSi+0x170>
    403b:	4c 89 f7             	mov    %r14,%rdi
    403e:	48 8d 74 24 68       	lea    0x68(%rsp),%rsi
    4043:	ba 18 00 00 00       	mov    $0x18,%edx
    4048:	e8 43 e2 ff ff       	call   2290 <_ZNSt7__cxx1118basic_stringstreamIcSt11char_traitsIcESaIcEEC1ERKNS_12basic_stringIcS2_S3_EESt13_Ios_Openmode@plt>
    404d:	4c 89 f7             	mov    %r14,%rdi
    4050:	48 8d b4 24 88 00 00 	lea    0x88(%rsp),%rsi
    4057:	00 
    4058:	e8 c3 e1 ff ff       	call   2220 <_ZStrsIcSt11char_traitsIcESaIcEERSt13basic_istreamIT_T0_ES7_RNSt7__cxx1112basic_stringIS4_S5_T1_EE@plt>
    405d:	4c 8b bc 24 90 00 00 	mov    0x90(%rsp),%r15
    4064:	00 
    4065:	4c 3b bc 24 28 01 00 	cmp    0x128(%rsp),%r15
    406c:	00 
    406d:	75 29                	jne    4098 <_ZN4Mesh8read_objERSi+0x268>
    406f:	4d 85 ff             	test   %r15,%r15
    4072:	0f 84 e0 00 00 00    	je     4158 <_ZN4Mesh8read_objERSi+0x328>
    4078:	48 8b b4 24 20 01 00 	mov    0x120(%rsp),%rsi
    407f:	00 
    4080:	48 8b bc 24 88 00 00 	mov    0x88(%rsp),%rdi
    4087:	00 
    4088:	4c 89 fa             	mov    %r15,%rdx
    408b:	e8 20 e1 ff ff       	call   21b0 <bcmp@plt>
    4090:	85 c0                	test   %eax,%eax
    4092:	0f 84 c0 00 00 00    	je     4158 <_ZN4Mesh8read_objERSi+0x328>
    4098:	4c 3b bc 24 08 01 00 	cmp    0x108(%rsp),%r15
    409f:	00 
    40a0:	75 29                	jne    40cb <_ZN4Mesh8read_objERSi+0x29b>
    40a2:	4d 85 ff             	test   %r15,%r15
    40a5:	0f 84 17 01 00 00    	je     41c2 <_ZN4Mesh8read_objERSi+0x392>
    40ab:	48 8b b4 24 00 01 00 	mov    0x100(%rsp),%rsi
    40b2:	00 
    40b3:	48 8b bc 24 88 00 00 	mov    0x88(%rsp),%rdi
    40ba:	00 
    40bb:	4c 89 fa             	mov    %r15,%rdx
    40be:	e8 ed e0 ff ff       	call   21b0 <bcmp@plt>
    40c3:	85 c0                	test   %eax,%eax
    40c5:	0f 84 f7 00 00 00    	je     41c2 <_ZN4Mesh8read_objERSi+0x392>
    40cb:	4c 3b bc 24 e8 00 00 	cmp    0xe8(%rsp),%r15
    40d2:	00 
    40d3:	0f 85 09 10 00 00    	jne    50e2 <_ZN4Mesh8read_objERSi+0x12b2>
    40d9:	4d 85 ff             	test   %r15,%r15
    40dc:	74 20                	je     40fe <_ZN4Mesh8read_objERSi+0x2ce>
    40de:	48 8b b4 24 e0 00 00 	mov    0xe0(%rsp),%rsi
    40e5:	00 
    40e6:	48 8b bc 24 88 00 00 	mov    0x88(%rsp),%rdi
    40ed:	00 
    40ee:	4c 89 fa             	mov    %r15,%rdx
    40f1:	e8 ba e0 ff ff       	call   21b0 <bcmp@plt>
    40f6:	85 c0                	test   %eax,%eax
    40f8:	0f 85 e4 0f 00 00    	jne    50e2 <_ZN4Mesh8read_objERSi+0x12b2>
    40fe:	4c 89 ef             	mov    %r13,%rdi
    4101:	e8 2a e7 ff ff       	call   2830 <_ZN7CompFab11Vec2fStructC1Ev>
    4106:	48 8d bc 24 d0 02 00 	lea    0x2d0(%rsp),%rdi
    410d:	00 
    410e:	48 8d b4 24 48 01 00 	lea    0x148(%rsp),%rsi
    4115:	00 
    4116:	e8 25 e2 ff ff       	call   2340 <_ZNSi10_M_extractIfEERSiRT_@plt>
    411b:	48 8d bc 24 d0 02 00 	lea    0x2d0(%rsp),%rdi
    4122:	00 
    4123:	48 8d b4 24 4c 01 00 	lea    0x14c(%rsp),%rsi
    412a:	00 
    412b:	e8 10 e2 ff ff       	call   2340 <_ZNSi10_M_extractIfEERSiRT_@plt>
    4130:	48 8b 6c 24 20       	mov    0x20(%rsp),%rbp
    4135:	48 8b 5d 40          	mov    0x40(%rbp),%rbx
    4139:	48 3b 5d 48          	cmp    0x48(%rbp),%rbx
    413d:	0f 84 48 01 00 00    	je     428b <_ZN4Mesh8read_objERSi+0x45b>
    4143:	48 8b 84 24 48 01 00 	mov    0x148(%rsp),%rax
    414a:	00 
    414b:	48 89 03             	mov    %rax,(%rbx)
    414e:	48 83 45 40 08       	addq   $0x8,0x40(%rbp)
    4153:	e9 d5 02 00 00       	jmp    442d <_ZN4Mesh8read_objERSi+0x5fd>
    4158:	4c 89 ef             	mov    %r13,%rdi
    415b:	e8 20 e6 ff ff       	call   2780 <_ZN7CompFab10Vec3StructC1Ev>
    4160:	48 8d bc 24 d0 02 00 	lea    0x2d0(%rsp),%rdi
    4167:	00 
    4168:	48 8d b4 24 48 01 00 	lea    0x148(%rsp),%rsi
    416f:	00 
    4170:	e8 8b df ff ff       	call   2100 <_ZNSi10_M_extractIdEERSiRT_@plt>
    4175:	48 89 c7             	mov    %rax,%rdi
    4178:	48 8d b4 24 50 01 00 	lea    0x150(%rsp),%rsi
    417f:	00 
    4180:	e8 7b df ff ff       	call   2100 <_ZNSi10_M_extractIdEERSiRT_@plt>
    4185:	48 89 c7             	mov    %rax,%rdi
    4188:	48 8d b4 24 58 01 00 	lea    0x158(%rsp),%rsi
    418f:	00 
    4190:	e8 6b df ff ff       	call   2100 <_ZNSi10_M_extractIdEERSiRT_@plt>
    4195:	48 8b 5d 10          	mov    0x10(%rbp),%rbx
    4199:	48 3b 5d 18          	cmp    0x18(%rbp),%rbx
    419d:	74 77                	je     4216 <_ZN4Mesh8read_objERSi+0x3e6>
    419f:	48 8b 84 24 58 01 00 	mov    0x158(%rsp),%rax
    41a6:	00 
    41a7:	48 89 43 10          	mov    %rax,0x10(%rbx)
    41ab:	f3 0f 6f 84 24 48 01 	movdqu 0x148(%rsp),%xmm0
    41b2:	00 00 
    41b4:	f3 0f 7f 03          	movdqu %xmm0,(%rbx)
    41b8:	48 83 45 10 18       	addq   $0x18,0x10(%rbp)
    41bd:	e9 6b 02 00 00       	jmp    442d <_ZN4Mesh8read_objERSi+0x5fd>
    41c2:	48 8d 7c 24 68       	lea    0x68(%rsp),%rdi
    41c7:	be 2f 00 00 00       	mov    $0x2f,%esi
    41cc:	31 d2                	xor    %edx,%edx
    41ce:	e8 6d e0 ff ff       	call   2240 <_ZNKSt7__cxx1112basic_stringIcSt11char_traitsIcESaIcEE4findEcm@plt>
    41d3:	48 89 84 24 40 01 00 	mov    %rax,0x140(%rsp)
    41da:	00 
    41db:	48 83 f8 ff          	cmp    $0xffffffffffffffff,%rax
    41df:	0f 84 19 08 00 00    	je     49fe <_ZN4Mesh8read_objERSi+0xbce>
    41e5:	48 8b 4c 24 70       	mov    0x70(%rsp),%rcx
    41ea:	48 85 c9             	test   %rcx,%rcx
    41ed:	0f 84 0b 08 00 00    	je     49fe <_ZN4Mesh8read_objERSi+0xbce>
    41f3:	48 8b 44 24 68       	mov    0x68(%rsp),%rax
    41f8:	48 89 c6             	mov    %rax,%rsi
    41fb:	48 83 f9 08          	cmp    $0x8,%rcx
    41ff:	0f 82 c0 0f 00 00    	jb     51c5 <_ZN4Mesh8read_objERSi+0x1395>
    4205:	48 83 f9 20          	cmp    $0x20,%rcx
    4209:	0f 83 30 02 00 00    	jae    443f <_ZN4Mesh8read_objERSi+0x60f>
    420f:	31 d2                	xor    %edx,%edx
    4211:	e9 ba 06 00 00       	jmp    48d0 <_ZN4Mesh8read_objERSi+0xaa0>
    4216:	4c 8b 7d 08          	mov    0x8(%rbp),%r15
    421a:	49 89 dd             	mov    %rbx,%r13
    421d:	4d 29 fd             	sub    %r15,%r13
    4220:	48 b8 f8 ff ff ff ff 	movabs $0x7ffffffffffffff8,%rax
    4227:	ff ff 7f 
    422a:	49 39 c5             	cmp    %rax,%r13
    422d:	0f 84 bc 10 00 00    	je     52ef <_ZN4Mesh8read_objERSi+0x14bf>
    4233:	49 c1 fd 03          	sar    $0x3,%r13
    4237:	48 b8 ab aa aa aa aa 	movabs $0xaaaaaaaaaaaaaaab,%rax
    423e:	aa aa aa 
    4241:	4c 0f af e8          	imul   %rax,%r13
    4245:	49 83 fd 01          	cmp    $0x1,%r13
    4249:	4c 89 e8             	mov    %r13,%rax
    424c:	48 83 d0 00          	adc    $0x0,%rax
    4250:	4e 8d 34 28          	lea    (%rax,%r13,1),%r14
    4254:	48 b9 55 55 55 55 55 	movabs $0x555555555555555,%rcx
    425b:	55 55 05 
    425e:	49 39 ce             	cmp    %rcx,%r14
    4261:	4c 0f 47 f1          	cmova  %rcx,%r14
    4265:	4c 01 e8             	add    %r13,%rax
    4268:	4c 0f 42 f1          	cmovb  %rcx,%r14
    426c:	4d 85 f6             	test   %r14,%r14
    426f:	0f 84 83 00 00 00    	je     42f8 <_ZN4Mesh8read_objERSi+0x4c8>
    4275:	4a 8d 04 f5 00 00 00 	lea    0x0(,%r14,8),%rax
    427c:	00 
    427d:	48 8d 3c 40          	lea    (%rax,%rax,2),%rdi
    4281:	e8 1a df ff ff       	call   21a0 <_Znwm@plt>
    4286:	49 89 c4             	mov    %rax,%r12
    4289:	eb 70                	jmp    42fb <_ZN4Mesh8read_objERSi+0x4cb>
    428b:	4c 8b 7d 38          	mov    0x38(%rbp),%r15
    428f:	49 89 dd             	mov    %rbx,%r13
    4292:	4d 29 fd             	sub    %r15,%r13
    4295:	48 b8 f8 ff ff ff ff 	movabs $0x7ffffffffffffff8,%rax
    429c:	ff ff 7f 
    429f:	49 39 c5             	cmp    %rax,%r13
    42a2:	0f 84 53 10 00 00    	je     52fb <_ZN4Mesh8read_objERSi+0x14cb>
    42a8:	4c 89 ed             	mov    %r13,%rbp
    42ab:	48 c1 fd 03          	sar    $0x3,%rbp
    42af:	48 83 fd 01          	cmp    $0x1,%rbp
    42b3:	48 89 e8             	mov    %rbp,%rax
    42b6:	48 83 d0 00          	adc    $0x0,%rax
    42ba:	4c 8d 34 28          	lea    (%rax,%rbp,1),%r14
    42be:	4c 89 f1             	mov    %r14,%rcx
    42c1:	48 c1 e9 3c          	shr    $0x3c,%rcx
    42c5:	48 b9 ff ff ff ff ff 	movabs $0xfffffffffffffff,%rcx
    42cc:	ff ff 0f 
    42cf:	4c 0f 45 f1          	cmovne %rcx,%r14
    42d3:	48 01 e8             	add    %rbp,%rax
    42d6:	4c 0f 42 f1          	cmovb  %rcx,%r14
    42da:	4d 85 f6             	test   %r14,%r14
    42dd:	0f 84 96 00 00 00    	je     4379 <_ZN4Mesh8read_objERSi+0x549>
    42e3:	4a 8d 3c f5 00 00 00 	lea    0x0(,%r14,8),%rdi
    42ea:	00 
    42eb:	e8 b0 de ff ff       	call   21a0 <_Znwm@plt>
    42f0:	49 89 c4             	mov    %rax,%r12
    42f3:	e9 84 00 00 00       	jmp    437c <_ZN4Mesh8read_objERSi+0x54c>
    42f8:	45 31 e4             	xor    %r12d,%r12d
    42fb:	4a 8d 04 6d 00 00 00 	lea    0x0(,%r13,2),%rax
    4302:	00 
    4303:	4c 01 e8             	add    %r13,%rax
    4306:	48 8b 8c 24 58 01 00 	mov    0x158(%rsp),%rcx
    430d:	00 
    430e:	49 89 4c c4 10       	mov    %rcx,0x10(%r12,%rax,8)
    4313:	f3 0f 6f 84 24 48 01 	movdqu 0x148(%rsp),%xmm0
    431a:	00 00 
    431c:	f3 41 0f 7f 04 c4    	movdqu %xmm0,(%r12,%rax,8)
    4322:	4d 89 e5             	mov    %r12,%r13
    4325:	49 39 df             	cmp    %rbx,%r15
    4328:	74 25                	je     434f <_ZN4Mesh8read_objERSi+0x51f>
    432a:	4d 89 e5             	mov    %r12,%r13
    432d:	4c 89 f8             	mov    %r15,%rax
    4330:	48 8b 48 10          	mov    0x10(%rax),%rcx
    4334:	49 89 4d 10          	mov    %rcx,0x10(%r13)
    4338:	f3 0f 6f 00          	movdqu (%rax),%xmm0
    433c:	f3 41 0f 7f 45 00    	movdqu %xmm0,0x0(%r13)
    4342:	48 83 c0 18          	add    $0x18,%rax
    4346:	49 83 c5 18          	add    $0x18,%r13
    434a:	48 39 d8             	cmp    %rbx,%rax
    434d:	75 e1                	jne    4330 <_ZN4Mesh8read_objERSi+0x500>
    434f:	4d 85 ff             	test   %r15,%r15
    4352:	74 08                	je     435c <_ZN4Mesh8read_objERSi+0x52c>
    4354:	4c 89 ff             	mov    %r15,%rdi
    4357:	e8 24 de ff ff       	call   2180 <_ZdlPv@plt>
    435c:	49 83 c5 18          	add    $0x18,%r13
    4360:	4c 89 65 08          	mov    %r12,0x8(%rbp)
    4364:	4c 89 6d 10          	mov    %r13,0x10(%rbp)
    4368:	4b 8d 04 76          	lea    (%r14,%r14,2),%rax
    436c:	49 8d 04 c4          	lea    (%r12,%rax,8),%rax
    4370:	48 89 45 18          	mov    %rax,0x18(%rbp)
    4374:	e9 b4 00 00 00       	jmp    442d <_ZN4Mesh8read_objERSi+0x5fd>
    4379:	45 31 e4             	xor    %r12d,%r12d
    437c:	48 8b 84 24 48 01 00 	mov    0x148(%rsp),%rax
    4383:	00 
    4384:	49 89 04 ec          	mov    %rax,(%r12,%rbp,8)
    4388:	4c 89 e5             	mov    %r12,%rbp
    438b:	49 39 df             	cmp    %rbx,%r15
    438e:	74 74                	je     4404 <_ZN4Mesh8read_objERSi+0x5d4>
    4390:	49 83 c5 f8          	add    $0xfffffffffffffff8,%r13
    4394:	4c 89 e5             	mov    %r12,%rbp
    4397:	4c 89 f8             	mov    %r15,%rax
    439a:	49 83 fd 18          	cmp    $0x18,%r13
    439e:	72 50                	jb     43f0 <_ZN4Mesh8read_objERSi+0x5c0>
    43a0:	49 c1 ed 03          	shr    $0x3,%r13
    43a4:	49 ff c5             	inc    %r13
    43a7:	4c 89 e9             	mov    %r13,%rcx
    43aa:	48 83 e1 fc          	and    $0xfffffffffffffffc,%rcx
    43ae:	49 8d 2c cc          	lea    (%r12,%rcx,8),%rbp
    43b2:	49 8d 04 cf          	lea    (%r15,%rcx,8),%rax
    43b6:	31 d2                	xor    %edx,%edx
    43b8:	0f 1f 84 00 00 00 00 	nopl   0x0(%rax,%rax,1)
    43bf:	00 
    43c0:	f3 41 0f 6f 04 d7    	movdqu (%r15,%rdx,8),%xmm0
    43c6:	f3 41 0f 6f 4c d7 10 	movdqu 0x10(%r15,%rdx,8),%xmm1
    43cd:	f3 41 0f 7f 04 d4    	movdqu %xmm0,(%r12,%rdx,8)
    43d3:	f3 41 0f 7f 4c d4 10 	movdqu %xmm1,0x10(%r12,%rdx,8)
    43da:	48 83 c2 04          	add    $0x4,%rdx
    43de:	48 39 d1             	cmp    %rdx,%rcx
    43e1:	75 dd                	jne    43c0 <_ZN4Mesh8read_objERSi+0x590>
    43e3:	49 39 cd             	cmp    %rcx,%r13
    43e6:	74 1c                	je     4404 <_ZN4Mesh8read_objERSi+0x5d4>
    43e8:	0f 1f 84 00 00 00 00 	nopl   0x0(%rax,%rax,1)
    43ef:	00 
    43f0:	48 8b 08             	mov    (%rax),%rcx
    43f3:	48 89 4d 00          	mov    %rcx,0x0(%rbp)
    43f7:	48 83 c0 08          	add    $0x8,%rax
    43fb:	48 83 c5 08          	add    $0x8,%rbp
    43ff:	48 39 d8             	cmp    %rbx,%rax
    4402:	75 ec                	jne    43f0 <_ZN4Mesh8read_objERSi+0x5c0>
    4404:	4d 85 ff             	test   %r15,%r15
    4407:	74 08                	je     4411 <_ZN4Mesh8read_objERSi+0x5e1>
    4409:	4c 89 ff             	mov    %r15,%rdi
    440c:	e8 6f dd ff ff       	call   2180 <_ZdlPv@plt>
    4411:	48 83 c5 08          	add    $0x8,%rbp
    4415:	48 8b 44 24 20       	mov    0x20(%rsp),%rax
    441a:	4c 89 60 38          	mov    %r12,0x38(%rax)
    441e:	48 89 68 40          	mov    %rbp,0x40(%rax)
    4422:	48 89 c5             	mov    %rax,%rbp
    4425:	4b 8d 04 f4          	lea    (%r12,%r14,8),%rax
    4429:	48 89 45 48          	mov    %rax,0x48(%rbp)
    442d:	48 8b 5c 24 10       	mov    0x10(%rsp),%rbx
    4432:	4c 8d ac 24 48 01 00 	lea    0x148(%rsp),%r13
    4439:	00 
    443a:	e9 a3 0c 00 00       	jmp    50e2 <_ZN4Mesh8read_objERSi+0x12b2>
    443f:	48 89 ca             	mov    %rcx,%rdx
    4442:	48 83 e2 e0          	and    $0xffffffffffffffe0,%rdx
    4446:	31 f6                	xor    %esi,%esi
    4448:	eb 13                	jmp    445d <_ZN4Mesh8read_objERSi+0x62d>
    444a:	66 0f 1f 44 00 00    	nopw   0x0(%rax,%rax,1)
    4450:	48 83 c6 20          	add    $0x20,%rsi
    4454:	48 39 f2             	cmp    %rsi,%rdx
    4457:	0f 84 61 04 00 00    	je     48be <_ZN4Mesh8read_objERSi+0xa8e>
    445d:	f3 0f 6f 0c 30       	movdqu (%rax,%rsi,1),%xmm1
    4462:	66 0f 74 0d a6 6b 00 	pcmpeqb 0x6ba6(%rip),%xmm1        # b010 <_IO_stdin_used+0x10>
    4469:	00 
    446a:	66 0f 7e cf          	movd   %xmm1,%edi
    446e:	40 f6 c7 01          	test   $0x1,%dil
    4472:	0f 85 d8 01 00 00    	jne    4650 <_ZN4Mesh8read_objERSi+0x820>
    4478:	41 89 f8             	mov    %edi,%r8d
    447b:	41 c1 e8 08          	shr    $0x8,%r8d
    447f:	41 f6 c0 01          	test   $0x1,%r8b
    4483:	0f 85 dc 01 00 00    	jne    4665 <_ZN4Mesh8read_objERSi+0x835>
    4489:	41 89 f8             	mov    %edi,%r8d
    448c:	41 c1 e8 10          	shr    $0x10,%r8d
    4490:	41 f6 c0 01          	test   $0x1,%r8b
    4494:	0f 85 e1 01 00 00    	jne    467b <_ZN4Mesh8read_objERSi+0x84b>
    449a:	c1 ef 18             	shr    $0x18,%edi
    449d:	40 f6 c7 01          	test   $0x1,%dil
    44a1:	0f 85 e6 01 00 00    	jne    468d <_ZN4Mesh8read_objERSi+0x85d>
    44a7:	66 0f c5 f9 02       	pextrw $0x2,%xmm1,%edi
    44ac:	40 f6 c7 01          	test   $0x1,%dil
    44b0:	0f 85 eb 01 00 00    	jne    46a1 <_ZN4Mesh8read_objERSi+0x871>
    44b6:	c1 ef 08             	shr    $0x8,%edi
    44b9:	40 f6 c7 01          	test   $0x1,%dil
    44bd:	0f 85 f0 01 00 00    	jne    46b3 <_ZN4Mesh8read_objERSi+0x883>
    44c3:	66 0f c5 f9 03       	pextrw $0x3,%xmm1,%edi
    44c8:	40 f6 c7 01          	test   $0x1,%dil
    44cc:	0f 85 f5 01 00 00    	jne    46c7 <_ZN4Mesh8read_objERSi+0x897>
    44d2:	c1 ef 08             	shr    $0x8,%edi
    44d5:	40 f6 c7 01          	test   $0x1,%dil
    44d9:	0f 85 fa 01 00 00    	jne    46d9 <_ZN4Mesh8read_objERSi+0x8a9>
    44df:	66 0f c5 f9 04       	pextrw $0x4,%xmm1,%edi
    44e4:	40 f6 c7 01          	test   $0x1,%dil
    44e8:	0f 85 ff 01 00 00    	jne    46ed <_ZN4Mesh8read_objERSi+0x8bd>
    44ee:	c1 ef 08             	shr    $0x8,%edi
    44f1:	40 f6 c7 01          	test   $0x1,%dil
    44f5:	0f 85 04 02 00 00    	jne    46ff <_ZN4Mesh8read_objERSi+0x8cf>
    44fb:	f3 0f 6f 44 30 10    	movdqu 0x10(%rax,%rsi,1),%xmm0
    4501:	66 0f c5 f9 05       	pextrw $0x5,%xmm1,%edi
    4506:	40 f6 c7 01          	test   $0x1,%dil
    450a:	0f 85 09 02 00 00    	jne    4719 <_ZN4Mesh8read_objERSi+0x8e9>
    4510:	c1 ef 08             	shr    $0x8,%edi
    4513:	40 f6 c7 01          	test   $0x1,%dil
    4517:	0f 85 0e 02 00 00    	jne    472b <_ZN4Mesh8read_objERSi+0x8fb>
    451d:	66 0f c5 f9 06       	pextrw $0x6,%xmm1,%edi
    4522:	40 f6 c7 01          	test   $0x1,%dil
    4526:	0f 85 13 02 00 00    	jne    473f <_ZN4Mesh8read_objERSi+0x90f>
    452c:	c1 ef 08             	shr    $0x8,%edi
    452f:	40 f6 c7 01          	test   $0x1,%dil
    4533:	0f 85 18 02 00 00    	jne    4751 <_ZN4Mesh8read_objERSi+0x921>
    4539:	66 0f c5 f9 07       	pextrw $0x7,%xmm1,%edi
    453e:	40 f6 c7 01          	test   $0x1,%dil
    4542:	0f 85 1d 02 00 00    	jne    4765 <_ZN4Mesh8read_objERSi+0x935>
    4548:	c1 ef 08             	shr    $0x8,%edi
    454b:	40 f6 c7 01          	test   $0x1,%dil
    454f:	0f 85 22 02 00 00    	jne    4777 <_ZN4Mesh8read_objERSi+0x947>
    4555:	66 0f 74 05 b3 6a 00 	pcmpeqb 0x6ab3(%rip),%xmm0        # b010 <_IO_stdin_used+0x10>
    455c:	00 
    455d:	66 0f 7e c7          	movd   %xmm0,%edi
    4561:	40 f6 c7 01          	test   $0x1,%dil
    4565:	0f 85 27 02 00 00    	jne    4792 <_ZN4Mesh8read_objERSi+0x962>
    456b:	41 89 f8             	mov    %edi,%r8d
    456e:	41 c1 e8 08          	shr    $0x8,%r8d
    4572:	41 f6 c0 01          	test   $0x1,%r8b
    4576:	0f 85 2c 02 00 00    	jne    47a8 <_ZN4Mesh8read_objERSi+0x978>
    457c:	41 89 f8             	mov    %edi,%r8d
    457f:	41 c1 e8 10          	shr    $0x10,%r8d
    4583:	41 f6 c0 01          	test   $0x1,%r8b
    4587:	0f 85 31 02 00 00    	jne    47be <_ZN4Mesh8read_objERSi+0x98e>
    458d:	c1 ef 18             	shr    $0x18,%edi
    4590:	40 f6 c7 01          	test   $0x1,%dil
    4594:	0f 85 36 02 00 00    	jne    47d0 <_ZN4Mesh8read_objERSi+0x9a0>
    459a:	66 0f c5 f8 02       	pextrw $0x2,%xmm0,%edi
    459f:	40 f6 c7 01          	test   $0x1,%dil
    45a3:	0f 85 3b 02 00 00    	jne    47e4 <_ZN4Mesh8read_objERSi+0x9b4>
    45a9:	c1 ef 08             	shr    $0x8,%edi
    45ac:	40 f6 c7 01          	test   $0x1,%dil
    45b0:	0f 85 40 02 00 00    	jne    47f6 <_ZN4Mesh8read_objERSi+0x9c6>
    45b6:	66 0f c5 f8 03       	pextrw $0x3,%xmm0,%edi
    45bb:	40 f6 c7 01          	test   $0x1,%dil
    45bf:	0f 85 45 02 00 00    	jne    480a <_ZN4Mesh8read_objERSi+0x9da>
    45c5:	c1 ef 08             	shr    $0x8,%edi
    45c8:	40 f6 c7 01          	test   $0x1,%dil
    45cc:	0f 85 4a 02 00 00    	jne    481c <_ZN4Mesh8read_objERSi+0x9ec>
    45d2:	66 0f c5 f8 04       	pextrw $0x4,%xmm0,%edi
    45d7:	40 f6 c7 01          	test   $0x1,%dil
    45db:	0f 85 4f 02 00 00    	jne    4830 <_ZN4Mesh8read_objERSi+0xa00>
    45e1:	c1 ef 08             	shr    $0x8,%edi
    45e4:	40 f6 c7 01          	test   $0x1,%dil
    45e8:	0f 85 54 02 00 00    	jne    4842 <_ZN4Mesh8read_objERSi+0xa12>
    45ee:	66 0f c5 f8 05       	pextrw $0x5,%xmm0,%edi
    45f3:	40 f6 c7 01          	test   $0x1,%dil
    45f7:	0f 85 59 02 00 00    	jne    4856 <_ZN4Mesh8read_objERSi+0xa26>
    45fd:	c1 ef 08             	shr    $0x8,%edi
    4600:	40 f6 c7 01          	test   $0x1,%dil
    4604:	0f 85 5e 02 00 00    	jne    4868 <_ZN4Mesh8read_objERSi+0xa38>
    460a:	66 0f c5 f8 06       	pextrw $0x6,%xmm0,%edi
    460f:	40 f6 c7 01          	test   $0x1,%dil
    4613:	0f 85 63 02 00 00    	jne    487c <_ZN4Mesh8read_objERSi+0xa4c>
    4619:	c1 ef 08             	shr    $0x8,%edi
    461c:	40 f6 c7 01          	test   $0x1,%dil
    4620:	0f 85 68 02 00 00    	jne    488e <_ZN4Mesh8read_objERSi+0xa5e>
    4626:	66 0f c5 f8 07       	pextrw $0x7,%xmm0,%edi
    462b:	40 f6 c7 01          	test   $0x1,%dil
    462f:	0f 85 6d 02 00 00    	jne    48a2 <_ZN4Mesh8read_objERSi+0xa72>
    4635:	c1 ef 08             	shr    $0x8,%edi
    4638:	40 f6 c7 01          	test   $0x1,%dil
    463c:	0f 84 0e fe ff ff    	je     4450 <_ZN4Mesh8read_objERSi+0x620>
    4642:	e9 6d 02 00 00       	jmp    48b4 <_ZN4Mesh8read_objERSi+0xa84>
    4647:	66 0f 1f 84 00 00 00 	nopw   0x0(%rax,%rax,1)
    464e:	00 00 
    4650:	c6 04 30 20          	movb   $0x20,(%rax,%rsi,1)
    4654:	41 89 f8             	mov    %edi,%r8d
    4657:	41 c1 e8 08          	shr    $0x8,%r8d
    465b:	41 f6 c0 01          	test   $0x1,%r8b
    465f:	0f 84 24 fe ff ff    	je     4489 <_ZN4Mesh8read_objERSi+0x659>
    4665:	c6 44 30 01 20       	movb   $0x20,0x1(%rax,%rsi,1)
    466a:	41 89 f8             	mov    %edi,%r8d
    466d:	41 c1 e8 10          	shr    $0x10,%r8d
    4671:	41 f6 c0 01          	test   $0x1,%r8b
    4675:	0f 84 1f fe ff ff    	je     449a <_ZN4Mesh8read_objERSi+0x66a>
    467b:	c6 44 30 02 20       	movb   $0x20,0x2(%rax,%rsi,1)
    4680:	c1 ef 18             	shr    $0x18,%edi
    4683:	40 f6 c7 01          	test   $0x1,%dil
    4687:	0f 84 1a fe ff ff    	je     44a7 <_ZN4Mesh8read_objERSi+0x677>
    468d:	c6 44 30 03 20       	movb   $0x20,0x3(%rax,%rsi,1)
    4692:	66 0f c5 f9 02       	pextrw $0x2,%xmm1,%edi
    4697:	40 f6 c7 01          	test   $0x1,%dil
    469b:	0f 84 15 fe ff ff    	je     44b6 <_ZN4Mesh8read_objERSi+0x686>
    46a1:	c6 44 30 04 20       	movb   $0x20,0x4(%rax,%rsi,1)
    46a6:	c1 ef 08             	shr    $0x8,%edi
    46a9:	40 f6 c7 01          	test   $0x1,%dil
    46ad:	0f 84 10 fe ff ff    	je     44c3 <_ZN4Mesh8read_objERSi+0x693>
    46b3:	c6 44 30 05 20       	movb   $0x20,0x5(%rax,%rsi,1)
    46b8:	66 0f c5 f9 03       	pextrw $0x3,%xmm1,%edi
    46bd:	40 f6 c7 01          	test   $0x1,%dil
    46c1:	0f 84 0b fe ff ff    	je     44d2 <_ZN4Mesh8read_objERSi+0x6a2>
    46c7:	c6 44 30 06 20       	movb   $0x20,0x6(%rax,%rsi,1)
    46cc:	c1 ef 08             	shr    $0x8,%edi
    46cf:	40 f6 c7 01          	test   $0x1,%dil
    46d3:	0f 84 06 fe ff ff    	je     44df <_ZN4Mesh8read_objERSi+0x6af>
    46d9:	c6 44 30 07 20       	movb   $0x20,0x7(%rax,%rsi,1)
    46de:	66 0f c5 f9 04       	pextrw $0x4,%xmm1,%edi
    46e3:	40 f6 c7 01          	test   $0x1,%dil
    46e7:	0f 84 01 fe ff ff    	je     44ee <_ZN4Mesh8read_objERSi+0x6be>
    46ed:	c6 44 30 08 20       	movb   $0x20,0x8(%rax,%rsi,1)
    46f2:	c1 ef 08             	shr    $0x8,%edi
    46f5:	40 f6 c7 01          	test   $0x1,%dil
    46f9:	0f 84 fc fd ff ff    	je     44fb <_ZN4Mesh8read_objERSi+0x6cb>
    46ff:	c6 44 30 09 20       	movb   $0x20,0x9(%rax,%rsi,1)
    4704:	f3 0f 6f 44 30 10    	movdqu 0x10(%rax,%rsi,1),%xmm0
    470a:	66 0f c5 f9 05       	pextrw $0x5,%xmm1,%edi
    470f:	40 f6 c7 01          	test   $0x1,%dil
    4713:	0f 84 f7 fd ff ff    	je     4510 <_ZN4Mesh8read_objERSi+0x6e0>
    4719:	c6 44 30 0a 20       	movb   $0x20,0xa(%rax,%rsi,1)
    471e:	c1 ef 08             	shr    $0x8,%edi
    4721:	40 f6 c7 01          	test   $0x1,%dil
    4725:	0f 84 f2 fd ff ff    	je     451d <_ZN4Mesh8read_objERSi+0x6ed>
    472b:	c6 44 30 0b 20       	movb   $0x20,0xb(%rax,%rsi,1)
    4730:	66 0f c5 f9 06       	pextrw $0x6,%xmm1,%edi
    4735:	40 f6 c7 01          	test   $0x1,%dil
    4739:	0f 84 ed fd ff ff    	je     452c <_ZN4Mesh8read_objERSi+0x6fc>
    473f:	c6 44 30 0c 20       	movb   $0x20,0xc(%rax,%rsi,1)
    4744:	c1 ef 08             	shr    $0x8,%edi
    4747:	40 f6 c7 01          	test   $0x1,%dil
    474b:	0f 84 e8 fd ff ff    	je     4539 <_ZN4Mesh8read_objERSi+0x709>
    4751:	c6 44 30 0d 20       	movb   $0x20,0xd(%rax,%rsi,1)
    4756:	66 0f c5 f9 07       	pextrw $0x7,%xmm1,%edi
    475b:	40 f6 c7 01          	test   $0x1,%dil
    475f:	0f 84 e3 fd ff ff    	je     4548 <_ZN4Mesh8read_objERSi+0x718>
    4765:	c6 44 30 0e 20       	movb   $0x20,0xe(%rax,%rsi,1)
    476a:	c1 ef 08             	shr    $0x8,%edi
    476d:	40 f6 c7 01          	test   $0x1,%dil
    4771:	0f 84 de fd ff ff    	je     4555 <_ZN4Mesh8read_objERSi+0x725>
    4777:	c6 44 30 0f 20       	movb   $0x20,0xf(%rax,%rsi,1)
    477c:	66 0f 74 05 8c 68 00 	pcmpeqb 0x688c(%rip),%xmm0        # b010 <_IO_stdin_used+0x10>
    4783:	00 
    4784:	66 0f 7e c7          	movd   %xmm0,%edi
    4788:	40 f6 c7 01          	test   $0x1,%dil
    478c:	0f 84 d9 fd ff ff    	je     456b <_ZN4Mesh8read_objERSi+0x73b>
    4792:	c6 44 30 10 20       	movb   $0x20,0x10(%rax,%rsi,1)
    4797:	41 89 f8             	mov    %edi,%r8d
    479a:	41 c1 e8 08          	shr    $0x8,%r8d
    479e:	41 f6 c0 01          	test   $0x1,%r8b
    47a2:	0f 84 d4 fd ff ff    	je     457c <_ZN4Mesh8read_objERSi+0x74c>
    47a8:	c6 44 30 11 20       	movb   $0x20,0x11(%rax,%rsi,1)
    47ad:	41 89 f8             	mov    %edi,%r8d
    47b0:	41 c1 e8 10          	shr    $0x10,%r8d
    47b4:	41 f6 c0 01          	test   $0x1,%r8b
    47b8:	0f 84 cf fd ff ff    	je     458d <_ZN4Mesh8read_objERSi+0x75d>
    47be:	c6 44 30 12 20       	movb   $0x20,0x12(%rax,%rsi,1)
    47c3:	c1 ef 18             	shr    $0x18,%edi
    47c6:	40 f6 c7 01          	test   $0x1,%dil
    47ca:	0f 84 ca fd ff ff    	je     459a <_ZN4Mesh8read_objERSi+0x76a>
    47d0:	c6 44 30 13 20       	movb   $0x20,0x13(%rax,%rsi,1)
    47d5:	66 0f c5 f8 02       	pextrw $0x2,%xmm0,%edi
    47da:	40 f6 c7 01          	test   $0x1,%dil
    47de:	0f 84 c5 fd ff ff    	je     45a9 <_ZN4Mesh8read_objERSi+0x779>
    47e4:	c6 44 30 14 20       	movb   $0x20,0x14(%rax,%rsi,1)
    47e9:	c1 ef 08             	shr    $0x8,%edi
    47ec:	40 f6 c7 01          	test   $0x1,%dil
    47f0:	0f 84 c0 fd ff ff    	je     45b6 <_ZN4Mesh8read_objERSi+0x786>
    47f6:	c6 44 30 15 20       	movb   $0x20,0x15(%rax,%rsi,1)
    47fb:	66 0f c5 f8 03       	pextrw $0x3,%xmm0,%edi
    4800:	40 f6 c7 01          	test   $0x1,%dil
    4804:	0f 84 bb fd ff ff    	je     45c5 <_ZN4Mesh8read_objERSi+0x795>
    480a:	c6 44 30 16 20       	movb   $0x20,0x16(%rax,%rsi,1)
    480f:	c1 ef 08             	shr    $0x8,%edi
    4812:	40 f6 c7 01          	test   $0x1,%dil
    4816:	0f 84 b6 fd ff ff    	je     45d2 <_ZN4Mesh8read_objERSi+0x7a2>
    481c:	c6 44 30 17 20       	movb   $0x20,0x17(%rax,%rsi,1)
    4821:	66 0f c5 f8 04       	pextrw $0x4,%xmm0,%edi
    4826:	40 f6 c7 01          	test   $0x1,%dil
    482a:	0f 84 b1 fd ff ff    	je     45e1 <_ZN4Mesh8read_objERSi+0x7b1>
    4830:	c6 44 30 18 20       	movb   $0x20,0x18(%rax,%rsi,1)
    4835:	c1 ef 08             	shr    $0x8,%edi
    4838:	40 f6 c7 01          	test   $0x1,%dil
    483c:	0f 84 ac fd ff ff    	je     45ee <_ZN4Mesh8read_objERSi+0x7be>
    4842:	c6 44 30 19 20       	movb   $0x20,0x19(%rax,%rsi,1)
    4847:	66 0f c5 f8 05       	pextrw $0x5,%xmm0,%edi
    484c:	40 f6 c7 01          	test   $0x1,%dil
    4850:	0f 84 a7 fd ff ff    	je     45fd <_ZN4Mesh8read_objERSi+0x7cd>
    4856:	c6 44 30 1a 20       	movb   $0x20,0x1a(%rax,%rsi,1)
    485b:	c1 ef 08             	shr    $0x8,%edi
    485e:	40 f6 c7 01          	test   $0x1,%dil
    4862:	0f 84 a2 fd ff ff    	je     460a <_ZN4Mesh8read_objERSi+0x7da>
    4868:	c6 44 30 1b 20       	movb   $0x20,0x1b(%rax,%rsi,1)
    486d:	66 0f c5 f8 06       	pextrw $0x6,%xmm0,%edi
    4872:	40 f6 c7 01          	test   $0x1,%dil
    4876:	0f 84 9d fd ff ff    	je     4619 <_ZN4Mesh8read_objERSi+0x7e9>
    487c:	c6 44 30 1c 20       	movb   $0x20,0x1c(%rax,%rsi,1)
    4881:	c1 ef 08             	shr    $0x8,%edi
    4884:	40 f6 c7 01          	test   $0x1,%dil
    4888:	0f 84 98 fd ff ff    	je     4626 <_ZN4Mesh8read_objERSi+0x7f6>
    488e:	c6 44 30 1d 20       	movb   $0x20,0x1d(%rax,%rsi,1)
    4893:	66 0f c5 f8 07       	pextrw $0x7,%xmm0,%edi
    4898:	40 f6 c7 01          	test   $0x1,%dil
    489c:	0f 84 93 fd ff ff    	je     4635 <_ZN4Mesh8read_objERSi+0x805>
    48a2:	c6 44 30 1e 20       	movb   $0x20,0x1e(%rax,%rsi,1)
    48a7:	c1 ef 08             	shr    $0x8,%edi
    48aa:	40 f6 c7 01          	test   $0x1,%dil
    48ae:	0f 84 9c fb ff ff    	je     4450 <_ZN4Mesh8read_objERSi+0x620>
    48b4:	c6 44 30 1f 20       	movb   $0x20,0x1f(%rax,%rsi,1)
    48b9:	e9 92 fb ff ff       	jmp    4450 <_ZN4Mesh8read_objERSi+0x620>
    48be:	48 39 d1             	cmp    %rdx,%rcx
    48c1:	0f 84 37 01 00 00    	je     49fe <_ZN4Mesh8read_objERSi+0xbce>
    48c7:	f6 c1 18             	test   $0x18,%cl
    48ca:	0f 84 ef 08 00 00    	je     51bf <_ZN4Mesh8read_objERSi+0x138f>
    48d0:	48 89 cf             	mov    %rcx,%rdi
    48d3:	48 83 e7 f8          	and    $0xfffffffffffffff8,%rdi
    48d7:	48 8d 34 38          	lea    (%rax,%rdi,1),%rsi
    48db:	eb 10                	jmp    48ed <_ZN4Mesh8read_objERSi+0xabd>
    48dd:	0f 1f 00             	nopl   (%rax)
    48e0:	48 83 c2 08          	add    $0x8,%rdx
    48e4:	48 39 d7             	cmp    %rdx,%rdi
    48e7:	0f 84 08 01 00 00    	je     49f5 <_ZN4Mesh8read_objERSi+0xbc5>
    48ed:	f3 0f 7e 0c 10       	movq   (%rax,%rdx,1),%xmm1
    48f2:	66 0f 6f c1          	movdqa %xmm1,%xmm0
    48f6:	66 0f 74 05 22 67 00 	pcmpeqb 0x6722(%rip),%xmm0        # b020 <_IO_stdin_used+0x20>
    48fd:	00 
    48fe:	66 41 0f 7e c0       	movd   %xmm0,%r8d
    4903:	41 f6 c0 01          	test   $0x1,%r8b
    4907:	74 04                	je     490d <_ZN4Mesh8read_objERSi+0xadd>
    4909:	c6 04 10 20          	movb   $0x20,(%rax,%rdx,1)
    490d:	66 0f 6f d0          	movdqa %xmm0,%xmm2
    4911:	66 0f 72 f2 08       	pslld  $0x8,%xmm2
    4916:	66 41 0f 7e d0       	movd   %xmm2,%r8d
    491b:	41 c1 e8 10          	shr    $0x10,%r8d
    491f:	41 f6 c0 01          	test   $0x1,%r8b
    4923:	74 05                	je     492a <_ZN4Mesh8read_objERSi+0xafa>
    4925:	c6 44 10 01 20       	movb   $0x20,0x1(%rax,%rdx,1)
    492a:	f2 0f 70 d1 55       	pshuflw $0x55,%xmm1,%xmm2
    492f:	66 0f 74 15 e9 66 00 	pcmpeqb 0x66e9(%rip),%xmm2        # b020 <_IO_stdin_used+0x20>
    4936:	00 
    4937:	66 44 0f c5 c2 02    	pextrw $0x2,%xmm2,%r8d
    493d:	41 f6 c0 01          	test   $0x1,%r8b
    4941:	74 05                	je     4948 <_ZN4Mesh8read_objERSi+0xb18>
    4943:	c6 44 10 02 20       	movb   $0x20,0x2(%rax,%rdx,1)
    4948:	66 0f 6f d0          	movdqa %xmm0,%xmm2
    494c:	66 0f 73 f2 18       	psllq  $0x18,%xmm2
    4951:	66 44 0f c5 c2 03    	pextrw $0x3,%xmm2,%r8d
    4957:	41 f6 c0 01          	test   $0x1,%r8b
    495b:	74 05                	je     4962 <_ZN4Mesh8read_objERSi+0xb32>
    495d:	c6 44 10 03 20       	movb   $0x20,0x3(%rax,%rdx,1)
    4962:	66 0f 70 c9 55       	pshufd $0x55,%xmm1,%xmm1
    4967:	66 0f 74 0d a1 66 00 	pcmpeqb 0x66a1(%rip),%xmm1        # b010 <_IO_stdin_used+0x10>
    496e:	00 
    496f:	66 44 0f c5 c1 04    	pextrw $0x4,%xmm1,%r8d
    4975:	41 f6 c0 01          	test   $0x1,%r8b
    4979:	74 05                	je     4980 <_ZN4Mesh8read_objERSi+0xb50>
    497b:	c6 44 10 04 20       	movb   $0x20,0x4(%rax,%rdx,1)
    4980:	66 0f 6f c8          	movdqa %xmm0,%xmm1
    4984:	66 0f 73 f9 05       	pslldq $0x5,%xmm1
    4989:	66 44 0f c5 c1 05    	pextrw $0x5,%xmm1,%r8d
    498f:	41 f6 c0 01          	test   $0x1,%r8b
    4993:	75 2b                	jne    49c0 <_ZN4Mesh8read_objERSi+0xb90>
    4995:	66 44 0f c5 c0 03    	pextrw $0x3,%xmm0,%r8d
    499b:	41 f6 c0 01          	test   $0x1,%r8b
    499f:	75 30                	jne    49d1 <_ZN4Mesh8read_objERSi+0xba1>
    49a1:	66 0f 73 f8 07       	pslldq $0x7,%xmm0
    49a6:	66 44 0f c5 c0 07    	pextrw $0x7,%xmm0,%r8d
    49ac:	41 f6 c0 01          	test   $0x1,%r8b
    49b0:	0f 84 2a ff ff ff    	je     48e0 <_ZN4Mesh8read_objERSi+0xab0>
    49b6:	eb 33                	jmp    49eb <_ZN4Mesh8read_objERSi+0xbbb>
    49b8:	0f 1f 84 00 00 00 00 	nopl   0x0(%rax,%rax,1)
    49bf:	00 
    49c0:	c6 44 10 05 20       	movb   $0x20,0x5(%rax,%rdx,1)
    49c5:	66 44 0f c5 c0 03    	pextrw $0x3,%xmm0,%r8d
    49cb:	41 f6 c0 01          	test   $0x1,%r8b
    49cf:	74 d0                	je     49a1 <_ZN4Mesh8read_objERSi+0xb71>
    49d1:	c6 44 10 06 20       	movb   $0x20,0x6(%rax,%rdx,1)
    49d6:	66 0f 73 f8 07       	pslldq $0x7,%xmm0
    49db:	66 44 0f c5 c0 07    	pextrw $0x7,%xmm0,%r8d
    49e1:	41 f6 c0 01          	test   $0x1,%r8b
    49e5:	0f 84 f5 fe ff ff    	je     48e0 <_ZN4Mesh8read_objERSi+0xab0>
    49eb:	c6 44 10 07 20       	movb   $0x20,0x7(%rax,%rdx,1)
    49f0:	e9 eb fe ff ff       	jmp    48e0 <_ZN4Mesh8read_objERSi+0xab0>
    49f5:	48 39 f9             	cmp    %rdi,%rcx
    49f8:	0f 85 c7 07 00 00    	jne    51c5 <_ZN4Mesh8read_objERSi+0x1395>
    49fe:	4c 89 ef             	mov    %r13,%rdi
    4a01:	48 8d 74 24 68       	lea    0x68(%rsp),%rsi
    4a06:	ba 18 00 00 00       	mov    $0x18,%edx
    4a0b:	e8 80 d8 ff ff       	call   2290 <_ZNSt7__cxx1118basic_stringstreamIcSt11char_traitsIcESaIcEEC1ERKNS_12basic_stringIcS2_S3_EESt13_Ios_Openmode@plt>
    4a10:	4c 89 ef             	mov    %r13,%rdi
    4a13:	48 8d b4 24 88 00 00 	lea    0x88(%rsp),%rsi
    4a1a:	00 
    4a1b:	e8 00 d8 ff ff       	call   2220 <_ZStrsIcSt11char_traitsIcESaIcEERSt13basic_istreamIT_T0_ES7_RNSt7__cxx1112basic_stringIS4_S5_T1_EE@plt>
    4a20:	66 0f ef c0          	pxor   %xmm0,%xmm0
    4a24:	66 0f 7f 44 24 30    	movdqa %xmm0,0x30(%rsp)
    4a2a:	48 c7 44 24 40 00 00 	movq   $0x0,0x40(%rsp)
    4a31:	00 00 
    4a33:	31 c0                	xor    %eax,%eax
    4a35:	48 89 44 24 18       	mov    %rax,0x18(%rsp)
    4a3a:	45 31 e4             	xor    %r12d,%r12d
    4a3d:	31 c0                	xor    %eax,%eax
    4a3f:	48 89 44 24 28       	mov    %rax,0x28(%rsp)
    4a44:	eb 23                	jmp    4a69 <_ZN4Mesh8read_objERSi+0xc39>
    4a46:	66 2e 0f 1f 84 00 00 	cs nopw 0x0(%rax,%rax,1)
    4a4d:	00 00 00 
    4a50:	8b 44 24 0c          	mov    0xc(%rsp),%eax
    4a54:	41 89 45 00          	mov    %eax,0x0(%r13)
    4a58:	49 83 c5 04          	add    $0x4,%r13
    4a5c:	4c 89 6c 24 38       	mov    %r13,0x38(%rsp)
    4a61:	4c 8d ac 24 48 01 00 	lea    0x148(%rsp),%r13
    4a68:	00 
    4a69:	4c 89 ef             	mov    %r13,%rdi
    4a6c:	48 8d 74 24 0c       	lea    0xc(%rsp),%rsi
    4a71:	e8 7a d6 ff ff       	call   20f0 <_ZNSirsERi@plt>
    4a76:	48 8b 08             	mov    (%rax),%rcx
    4a79:	48 8b 49 e8          	mov    -0x18(%rcx),%rcx
    4a7d:	f6 44 08 20 05       	testb  $0x5,0x20(%rax,%rcx,1)
    4a82:	0f 85 2b 02 00 00    	jne    4cb3 <_ZN4Mesh8read_objERSi+0xe83>
    4a88:	4c 3b 64 24 28       	cmp    0x28(%rsp),%r12
    4a8d:	4c 8b 6c 24 18       	mov    0x18(%rsp),%r13
    4a92:	74 2c                	je     4ac0 <_ZN4Mesh8read_objERSi+0xc90>
    4a94:	8b 44 24 0c          	mov    0xc(%rsp),%eax
    4a98:	41 89 04 24          	mov    %eax,(%r12)
    4a9c:	49 83 c4 04          	add    $0x4,%r12
    4aa0:	48 83 bc 24 40 01 00 	cmpq   $0xffffffffffffffff,0x140(%rsp)
    4aa7:	00 ff 
    4aa9:	4c 8d ac 24 48 01 00 	lea    0x148(%rsp),%r13
    4ab0:	00 
    4ab1:	0f 85 d5 00 00 00    	jne    4b8c <_ZN4Mesh8read_objERSi+0xd5c>
    4ab7:	eb b0                	jmp    4a69 <_ZN4Mesh8read_objERSi+0xc39>
    4ab9:	0f 1f 80 00 00 00 00 	nopl   0x0(%rax)
    4ac0:	4d 29 ec             	sub    %r13,%r12
    4ac3:	48 b8 f8 ff ff ff ff 	movabs $0x7ffffffffffffff8,%rax
    4aca:	ff ff 7f 
    4acd:	48 83 c0 04          	add    $0x4,%rax
    4ad1:	49 39 c4             	cmp    %rax,%r12
    4ad4:	0f 84 fd 07 00 00    	je     52d7 <_ZN4Mesh8read_objERSi+0x14a7>
    4ada:	4c 89 e3             	mov    %r12,%rbx
    4add:	48 c1 fb 02          	sar    $0x2,%rbx
    4ae1:	48 83 fb 01          	cmp    $0x1,%rbx
    4ae5:	48 89 d8             	mov    %rbx,%rax
    4ae8:	48 83 d0 00          	adc    $0x0,%rax
    4aec:	48 8d 3c 18          	lea    (%rax,%rbx,1),%rdi
    4af0:	48 be ff ff ff ff ff 	movabs $0x1fffffffffffffff,%rsi
    4af7:	ff ff 1f 
    4afa:	48 89 f1             	mov    %rsi,%rcx
    4afd:	48 39 f7             	cmp    %rsi,%rdi
    4b00:	0f 86 59 01 00 00    	jbe    4c5f <_ZN4Mesh8read_objERSi+0xe2f>
    4b06:	49 bf ff ff ff ff ff 	movabs $0x1fffffffffffffff,%r15
    4b0d:	ff ff 1f 
    4b10:	48 01 d8             	add    %rbx,%rax
    4b13:	0f 83 5c 01 00 00    	jae    4c75 <_ZN4Mesh8read_objERSi+0xe45>
    4b19:	4d 85 ff             	test   %r15,%r15
    4b1c:	0f 84 5f 01 00 00    	je     4c81 <_ZN4Mesh8read_objERSi+0xe51>
    4b22:	4a 8d 3c bd 00 00 00 	lea    0x0(,%r15,4),%rdi
    4b29:	00 
    4b2a:	e8 71 d6 ff ff       	call   21a0 <_Znwm@plt>
    4b2f:	49 89 c6             	mov    %rax,%r14
    4b32:	4c 8b 6c 24 18       	mov    0x18(%rsp),%r13
    4b37:	8b 44 24 0c          	mov    0xc(%rsp),%eax
    4b3b:	41 89 04 9e          	mov    %eax,(%r14,%rbx,4)
    4b3f:	4d 85 e4             	test   %r12,%r12
    4b42:	7e 0e                	jle    4b52 <_ZN4Mesh8read_objERSi+0xd22>
    4b44:	4c 89 f7             	mov    %r14,%rdi
    4b47:	4c 89 ee             	mov    %r13,%rsi
    4b4a:	4c 89 e2             	mov    %r12,%rdx
    4b4d:	e8 5e d7 ff ff       	call   22b0 <memmove@plt>
    4b52:	4d 85 ed             	test   %r13,%r13
    4b55:	74 08                	je     4b5f <_ZN4Mesh8read_objERSi+0xd2f>
    4b57:	4c 89 ef             	mov    %r13,%rdi
    4b5a:	e8 21 d6 ff ff       	call   2180 <_ZdlPv@plt>
    4b5f:	4d 8d 24 9e          	lea    (%r14,%rbx,4),%r12
    4b63:	4b 8d 04 be          	lea    (%r14,%r15,4),%rax
    4b67:	48 89 44 24 28       	mov    %rax,0x28(%rsp)
    4b6c:	4c 89 74 24 18       	mov    %r14,0x18(%rsp)
    4b71:	49 83 c4 04          	add    $0x4,%r12
    4b75:	48 83 bc 24 40 01 00 	cmpq   $0xffffffffffffffff,0x140(%rsp)
    4b7c:	00 ff 
    4b7e:	4c 8d ac 24 48 01 00 	lea    0x148(%rsp),%r13
    4b85:	00 
    4b86:	0f 84 dd fe ff ff    	je     4a69 <_ZN4Mesh8read_objERSi+0xc39>
    4b8c:	4c 89 ef             	mov    %r13,%rdi
    4b8f:	48 8d 74 24 0c       	lea    0xc(%rsp),%rsi
    4b94:	e8 57 d5 ff ff       	call   20f0 <_ZNSirsERi@plt>
    4b99:	4c 8b 6c 24 38       	mov    0x38(%rsp),%r13
    4b9e:	4c 3b 6c 24 40       	cmp    0x40(%rsp),%r13
    4ba3:	0f 85 a7 fe ff ff    	jne    4a50 <_ZN4Mesh8read_objERSi+0xc20>
    4ba9:	4c 8b 7c 24 30       	mov    0x30(%rsp),%r15
    4bae:	4d 29 fd             	sub    %r15,%r13
    4bb1:	48 b8 f8 ff ff ff ff 	movabs $0x7ffffffffffffff8,%rax
    4bb8:	ff ff 7f 
    4bbb:	48 83 c0 04          	add    $0x4,%rax
    4bbf:	49 39 c5             	cmp    %rax,%r13
    4bc2:	0f 84 1b 07 00 00    	je     52e3 <_ZN4Mesh8read_objERSi+0x14b3>
    4bc8:	4c 89 ed             	mov    %r13,%rbp
    4bcb:	48 c1 fd 02          	sar    $0x2,%rbp
    4bcf:	48 83 fd 01          	cmp    $0x1,%rbp
    4bd3:	48 89 e8             	mov    %rbp,%rax
    4bd6:	48 83 d0 00          	adc    $0x0,%rax
    4bda:	48 8d 1c 28          	lea    (%rax,%rbp,1),%rbx
    4bde:	48 b9 ff ff ff ff ff 	movabs $0x1fffffffffffffff,%rcx
    4be5:	ff ff 1f 
    4be8:	48 39 cb             	cmp    %rcx,%rbx
    4beb:	48 0f 47 d9          	cmova  %rcx,%rbx
    4bef:	48 01 e8             	add    %rbp,%rax
    4bf2:	48 0f 42 d9          	cmovb  %rcx,%rbx
    4bf6:	48 85 db             	test   %rbx,%rbx
    4bf9:	0f 84 9b 00 00 00    	je     4c9a <_ZN4Mesh8read_objERSi+0xe6a>
    4bff:	48 8d 3c 9d 00 00 00 	lea    0x0(,%rbx,4),%rdi
    4c06:	00 
    4c07:	e8 94 d5 ff ff       	call   21a0 <_Znwm@plt>
    4c0c:	49 89 c6             	mov    %rax,%r14
    4c0f:	8b 44 24 0c          	mov    0xc(%rsp),%eax
    4c13:	41 89 04 ae          	mov    %eax,(%r14,%rbp,4)
    4c17:	4d 85 ed             	test   %r13,%r13
    4c1a:	7e 0e                	jle    4c2a <_ZN4Mesh8read_objERSi+0xdfa>
    4c1c:	4c 89 f7             	mov    %r14,%rdi
    4c1f:	4c 89 fe             	mov    %r15,%rsi
    4c22:	4c 89 ea             	mov    %r13,%rdx
    4c25:	e8 86 d6 ff ff       	call   22b0 <memmove@plt>
    4c2a:	4d 85 ff             	test   %r15,%r15
    4c2d:	74 08                	je     4c37 <_ZN4Mesh8read_objERSi+0xe07>
    4c2f:	4c 89 ff             	mov    %r15,%rdi
    4c32:	e8 49 d5 ff ff       	call   2180 <_ZdlPv@plt>
    4c37:	49 8d 04 ae          	lea    (%r14,%rbp,4),%rax
    4c3b:	48 83 c0 04          	add    $0x4,%rax
    4c3f:	4c 89 74 24 30       	mov    %r14,0x30(%rsp)
    4c44:	48 89 44 24 38       	mov    %rax,0x38(%rsp)
    4c49:	49 8d 04 9e          	lea    (%r14,%rbx,4),%rax
    4c4d:	48 89 44 24 40       	mov    %rax,0x40(%rsp)
    4c52:	4c 8d ac 24 48 01 00 	lea    0x148(%rsp),%r13
    4c59:	00 
    4c5a:	e9 0a fe ff ff       	jmp    4a69 <_ZN4Mesh8read_objERSi+0xc39>
    4c5f:	48 89 f9             	mov    %rdi,%rcx
    4c62:	49 bf ff ff ff ff ff 	movabs $0x1fffffffffffffff,%r15
    4c69:	ff ff 1f 
    4c6c:	48 01 d8             	add    %rbx,%rax
    4c6f:	0f 82 a4 fe ff ff    	jb     4b19 <_ZN4Mesh8read_objERSi+0xce9>
    4c75:	49 89 cf             	mov    %rcx,%r15
    4c78:	4d 85 ff             	test   %r15,%r15
    4c7b:	0f 85 a1 fe ff ff    	jne    4b22 <_ZN4Mesh8read_objERSi+0xcf2>
    4c81:	45 31 f6             	xor    %r14d,%r14d
    4c84:	8b 44 24 0c          	mov    0xc(%rsp),%eax
    4c88:	41 89 04 9e          	mov    %eax,(%r14,%rbx,4)
    4c8c:	4d 85 e4             	test   %r12,%r12
    4c8f:	0f 8f af fe ff ff    	jg     4b44 <_ZN4Mesh8read_objERSi+0xd14>
    4c95:	e9 b8 fe ff ff       	jmp    4b52 <_ZN4Mesh8read_objERSi+0xd22>
    4c9a:	45 31 f6             	xor    %r14d,%r14d
    4c9d:	8b 44 24 0c          	mov    0xc(%rsp),%eax
    4ca1:	41 89 04 ae          	mov    %eax,(%r14,%rbp,4)
    4ca5:	4d 85 ed             	test   %r13,%r13
    4ca8:	0f 8f 6e ff ff ff    	jg     4c1c <_ZN4Mesh8read_objERSi+0xdec>
    4cae:	e9 77 ff ff ff       	jmp    4c2a <_ZN4Mesh8read_objERSi+0xdfa>
    4cb3:	4c 2b 64 24 18       	sub    0x18(%rsp),%r12
    4cb8:	49 c1 fc 02          	sar    $0x2,%r12
    4cbc:	48 8b 4c 24 30       	mov    0x30(%rsp),%rcx
    4cc1:	48 8b 44 24 38       	mov    0x38(%rsp),%rax
    4cc6:	48 89 c2             	mov    %rax,%rdx
    4cc9:	48 29 ca             	sub    %rcx,%rdx
    4ccc:	48 c1 fa 02          	sar    $0x2,%rdx
    4cd0:	4c 89 e7             	mov    %r12,%rdi
    4cd3:	4c 89 64 24 28       	mov    %r12,0x28(%rsp)
    4cd8:	49 29 d4             	sub    %rdx,%r12
    4cdb:	48 8b 6c 24 20       	mov    0x20(%rsp),%rbp
    4ce0:	48 8b 5c 24 10       	mov    0x10(%rsp),%rbx
    4ce5:	76 0f                	jbe    4cf6 <_ZN4Mesh8read_objERSi+0xec6>
    4ce7:	48 8d 7c 24 30       	lea    0x30(%rsp),%rdi
    4cec:	4c 89 e6             	mov    %r12,%rsi
    4cef:	e8 cc 31 00 00       	call   7ec0 <_ZNSt6vectorIiSaIiEE17_M_default_appendEm>
    4cf4:	eb 15                	jmp    4d0b <_ZN4Mesh8read_objERSi+0xedb>
    4cf6:	73 13                	jae    4d0b <_ZN4Mesh8read_objERSi+0xedb>
    4cf8:	48 8b 54 24 28       	mov    0x28(%rsp),%rdx
    4cfd:	48 8d 0c 91          	lea    (%rcx,%rdx,4),%rcx
    4d01:	48 39 c8             	cmp    %rcx,%rax
    4d04:	74 05                	je     4d0b <_ZN4Mesh8read_objERSi+0xedb>
    4d06:	48 89 4c 24 38       	mov    %rcx,0x38(%rsp)
    4d0b:	48 83 44 24 28 fe    	addq   $0xfffffffffffffffe,0x28(%rsp)
    4d11:	4c 8d ac 24 48 01 00 	lea    0x148(%rsp),%r13
    4d18:	00 
    4d19:	0f 84 ed 02 00 00    	je     500c <_ZN4Mesh8read_objERSi+0x11dc>
    4d1f:	45 31 f6             	xor    %r14d,%r14d
    4d22:	eb 33                	jmp    4d57 <_ZN4Mesh8read_objERSi+0xf27>
    4d24:	66 66 66 2e 0f 1f 84 	data16 data16 cs nopw 0x0(%rax,%rax,1)
    4d2b:	00 00 00 00 00 
    4d30:	8b 44 24 58          	mov    0x58(%rsp),%eax
    4d34:	89 43 08             	mov    %eax,0x8(%rbx)
    4d37:	48 8b 44 24 50       	mov    0x50(%rsp),%rax
    4d3c:	48 89 03             	mov    %rax,(%rbx)
    4d3f:	48 83 45 58 0c       	addq   $0xc,0x58(%rbp)
    4d44:	48 8b 5c 24 10       	mov    0x10(%rsp),%rbx
    4d49:	49 ff c6             	inc    %r14
    4d4c:	4c 3b 74 24 28       	cmp    0x28(%rsp),%r14
    4d51:	0f 84 b5 02 00 00    	je     500c <_ZN4Mesh8read_objERSi+0x11dc>
    4d57:	48 8d 7c 24 5c       	lea    0x5c(%rsp),%rdi
    4d5c:	e8 9f da ff ff       	call   2800 <_ZN7CompFab11Vec3iStructC1Ev>
    4d61:	48 8d 7c 24 50       	lea    0x50(%rsp),%rdi
    4d66:	e8 95 da ff ff       	call   2800 <_ZN7CompFab11Vec3iStructC1Ev>
    4d6b:	48 8b 54 24 18       	mov    0x18(%rsp),%rdx
    4d70:	8b 02                	mov    (%rdx),%eax
    4d72:	ff c8                	dec    %eax
    4d74:	89 44 24 5c          	mov    %eax,0x5c(%rsp)
    4d78:	48 8b 44 24 30       	mov    0x30(%rsp),%rax
    4d7d:	8b 08                	mov    (%rax),%ecx
    4d7f:	ff c9                	dec    %ecx
    4d81:	89 4c 24 50          	mov    %ecx,0x50(%rsp)
    4d85:	42 8b 4c b2 04       	mov    0x4(%rdx,%r14,4),%ecx
    4d8a:	ff c9                	dec    %ecx
    4d8c:	89 4c 24 60          	mov    %ecx,0x60(%rsp)
    4d90:	42 8b 4c b0 04       	mov    0x4(%rax,%r14,4),%ecx
    4d95:	ff c9                	dec    %ecx
    4d97:	89 4c 24 54          	mov    %ecx,0x54(%rsp)
    4d9b:	42 8b 4c b2 08       	mov    0x8(%rdx,%r14,4),%ecx
    4da0:	ff c9                	dec    %ecx
    4da2:	89 4c 24 64          	mov    %ecx,0x64(%rsp)
    4da6:	42 8b 44 b0 08       	mov    0x8(%rax,%r14,4),%eax
    4dab:	ff c8                	dec    %eax
    4dad:	89 44 24 58          	mov    %eax,0x58(%rsp)
    4db1:	48 8b 6c 24 20       	mov    0x20(%rsp),%rbp
    4db6:	48 8b 5d 70          	mov    0x70(%rbp),%rbx
    4dba:	48 3b 5d 78          	cmp    0x78(%rbp),%rbx
    4dbe:	74 30                	je     4df0 <_ZN4Mesh8read_objERSi+0xfc0>
    4dc0:	8b 44 24 64          	mov    0x64(%rsp),%eax
    4dc4:	89 43 08             	mov    %eax,0x8(%rbx)
    4dc7:	48 8b 44 24 5c       	mov    0x5c(%rsp),%rax
    4dcc:	48 89 03             	mov    %rax,(%rbx)
    4dcf:	48 83 45 70 0c       	addq   $0xc,0x70(%rbp)
    4dd4:	48 8b 5d 58          	mov    0x58(%rbp),%rbx
    4dd8:	48 3b 5d 60          	cmp    0x60(%rbp),%rbx
    4ddc:	4c 8d ac 24 48 01 00 	lea    0x148(%rsp),%r13
    4de3:	00 
    4de4:	0f 85 46 ff ff ff    	jne    4d30 <_ZN4Mesh8read_objERSi+0xf00>
    4dea:	e9 0e 01 00 00       	jmp    4efd <_ZN4Mesh8read_objERSi+0x10cd>
    4def:	90                   	nop
    4df0:	4c 8b 7d 68          	mov    0x68(%rbp),%r15
    4df4:	49 89 dc             	mov    %rbx,%r12
    4df7:	4d 29 fc             	sub    %r15,%r12
    4dfa:	48 b8 f8 ff ff ff ff 	movabs $0x7ffffffffffffff8,%rax
    4e01:	ff ff 7f 
    4e04:	49 39 c4             	cmp    %rax,%r12
    4e07:	0f 84 be 04 00 00    	je     52cb <_ZN4Mesh8read_objERSi+0x149b>
    4e0d:	49 c1 fc 02          	sar    $0x2,%r12
    4e11:	48 b8 ab aa aa aa aa 	movabs $0xaaaaaaaaaaaaaaab,%rax
    4e18:	aa aa aa 
    4e1b:	4c 0f af e0          	imul   %rax,%r12
    4e1f:	49 83 fc 01          	cmp    $0x1,%r12
    4e23:	4c 89 e0             	mov    %r12,%rax
    4e26:	48 83 d0 00          	adc    $0x0,%rax
    4e2a:	4a 8d 2c 20          	lea    (%rax,%r12,1),%rbp
    4e2e:	48 b9 aa aa aa aa aa 	movabs $0xaaaaaaaaaaaaaaa,%rcx
    4e35:	aa aa 0a 
    4e38:	48 39 cd             	cmp    %rcx,%rbp
    4e3b:	48 0f 47 e9          	cmova  %rcx,%rbp
    4e3f:	4c 01 e0             	add    %r12,%rax
    4e42:	48 0f 42 e9          	cmovb  %rcx,%rbp
    4e46:	48 85 ed             	test   %rbp,%rbp
    4e49:	74 16                	je     4e61 <_ZN4Mesh8read_objERSi+0x1031>
    4e4b:	48 8d 04 ad 00 00 00 	lea    0x0(,%rbp,4),%rax
    4e52:	00 
    4e53:	48 8d 3c 40          	lea    (%rax,%rax,2),%rdi
    4e57:	e8 44 d3 ff ff       	call   21a0 <_Znwm@plt>
    4e5c:	49 89 c5             	mov    %rax,%r13
    4e5f:	eb 03                	jmp    4e64 <_ZN4Mesh8read_objERSi+0x1034>
    4e61:	45 31 ed             	xor    %r13d,%r13d
    4e64:	4b 8d 04 64          	lea    (%r12,%r12,2),%rax
    4e68:	8b 4c 24 64          	mov    0x64(%rsp),%ecx
    4e6c:	41 89 4c 85 08       	mov    %ecx,0x8(%r13,%rax,4)
    4e71:	48 8b 4c 24 5c       	mov    0x5c(%rsp),%rcx
    4e76:	49 89 4c 85 00       	mov    %rcx,0x0(%r13,%rax,4)
    4e7b:	4d 89 ec             	mov    %r13,%r12
    4e7e:	49 39 df             	cmp    %rbx,%r15
    4e81:	74 29                	je     4eac <_ZN4Mesh8read_objERSi+0x107c>
    4e83:	4d 89 ec             	mov    %r13,%r12
    4e86:	4c 89 f8             	mov    %r15,%rax
    4e89:	0f 1f 80 00 00 00 00 	nopl   0x0(%rax)
    4e90:	8b 48 08             	mov    0x8(%rax),%ecx
    4e93:	41 89 4c 24 08       	mov    %ecx,0x8(%r12)
    4e98:	48 8b 08             	mov    (%rax),%rcx
    4e9b:	49 89 0c 24          	mov    %rcx,(%r12)
    4e9f:	48 83 c0 0c          	add    $0xc,%rax
    4ea3:	49 83 c4 0c          	add    $0xc,%r12
    4ea7:	48 39 d8             	cmp    %rbx,%rax
    4eaa:	75 e4                	jne    4e90 <_ZN4Mesh8read_objERSi+0x1060>
    4eac:	4d 85 ff             	test   %r15,%r15
    4eaf:	74 08                	je     4eb9 <_ZN4Mesh8read_objERSi+0x1089>
    4eb1:	4c 89 ff             	mov    %r15,%rdi
    4eb4:	e8 c7 d2 ff ff       	call   2180 <_ZdlPv@plt>
    4eb9:	49 83 c4 0c          	add    $0xc,%r12
    4ebd:	48 8b 4c 24 20       	mov    0x20(%rsp),%rcx
    4ec2:	4c 89 69 68          	mov    %r13,0x68(%rcx)
    4ec6:	4c 89 61 70          	mov    %r12,0x70(%rcx)
    4eca:	48 8d 04 6d 00 00 00 	lea    0x0(,%rbp,2),%rax
    4ed1:	00 
    4ed2:	48 01 e8             	add    %rbp,%rax
    4ed5:	48 89 cd             	mov    %rcx,%rbp
    4ed8:	48 8d 04 85 00 00 00 	lea    0x0(,%rax,4),%rax
    4edf:	00 
    4ee0:	4c 01 e8             	add    %r13,%rax
    4ee3:	48 89 41 78          	mov    %rax,0x78(%rcx)
    4ee7:	48 8b 5d 58          	mov    0x58(%rbp),%rbx
    4eeb:	48 3b 5d 60          	cmp    0x60(%rbp),%rbx
    4eef:	4c 8d ac 24 48 01 00 	lea    0x148(%rsp),%r13
    4ef6:	00 
    4ef7:	0f 85 33 fe ff ff    	jne    4d30 <_ZN4Mesh8read_objERSi+0xf00>
    4efd:	4c 8b 7d 50          	mov    0x50(%rbp),%r15
    4f01:	49 89 dc             	mov    %rbx,%r12
    4f04:	4d 29 fc             	sub    %r15,%r12
    4f07:	48 b8 f8 ff ff ff ff 	movabs $0x7ffffffffffffff8,%rax
    4f0e:	ff ff 7f 
    4f11:	49 39 c4             	cmp    %rax,%r12
    4f14:	0f 84 b1 03 00 00    	je     52cb <_ZN4Mesh8read_objERSi+0x149b>
    4f1a:	49 c1 fc 02          	sar    $0x2,%r12
    4f1e:	48 b8 ab aa aa aa aa 	movabs $0xaaaaaaaaaaaaaaab,%rax
    4f25:	aa aa aa 
    4f28:	4c 0f af e0          	imul   %rax,%r12
    4f2c:	49 83 fc 01          	cmp    $0x1,%r12
    4f30:	4c 89 e0             	mov    %r12,%rax
    4f33:	48 83 d0 00          	adc    $0x0,%rax
    4f37:	4a 8d 2c 20          	lea    (%rax,%r12,1),%rbp
    4f3b:	48 b9 aa aa aa aa aa 	movabs $0xaaaaaaaaaaaaaaa,%rcx
    4f42:	aa aa 0a 
    4f45:	48 39 cd             	cmp    %rcx,%rbp
    4f48:	48 0f 47 e9          	cmova  %rcx,%rbp
    4f4c:	4c 01 e0             	add    %r12,%rax
    4f4f:	48 0f 42 e9          	cmovb  %rcx,%rbp
    4f53:	48 85 ed             	test   %rbp,%rbp
    4f56:	74 16                	je     4f6e <_ZN4Mesh8read_objERSi+0x113e>
    4f58:	48 8d 04 ad 00 00 00 	lea    0x0(,%rbp,4),%rax
    4f5f:	00 
    4f60:	48 8d 3c 40          	lea    (%rax,%rax,2),%rdi
    4f64:	e8 37 d2 ff ff       	call   21a0 <_Znwm@plt>
    4f69:	49 89 c5             	mov    %rax,%r13
    4f6c:	eb 03                	jmp    4f71 <_ZN4Mesh8read_objERSi+0x1141>
    4f6e:	45 31 ed             	xor    %r13d,%r13d
    4f71:	4b 8d 04 64          	lea    (%r12,%r12,2),%rax
    4f75:	8b 4c 24 58          	mov    0x58(%rsp),%ecx
    4f79:	41 89 4c 85 08       	mov    %ecx,0x8(%r13,%rax,4)
    4f7e:	48 8b 4c 24 50       	mov    0x50(%rsp),%rcx
    4f83:	49 89 4c 85 00       	mov    %rcx,0x0(%r13,%rax,4)
    4f88:	4d 89 ec             	mov    %r13,%r12
    4f8b:	49 39 df             	cmp    %rbx,%r15
    4f8e:	74 2c                	je     4fbc <_ZN4Mesh8read_objERSi+0x118c>
    4f90:	4d 89 ec             	mov    %r13,%r12
    4f93:	4c 89 f8             	mov    %r15,%rax
    4f96:	66 2e 0f 1f 84 00 00 	cs nopw 0x0(%rax,%rax,1)
    4f9d:	00 00 00 
    4fa0:	8b 48 08             	mov    0x8(%rax),%ecx
    4fa3:	41 89 4c 24 08       	mov    %ecx,0x8(%r12)
    4fa8:	48 8b 08             	mov    (%rax),%rcx
    4fab:	49 89 0c 24          	mov    %rcx,(%r12)
    4faf:	48 83 c0 0c          	add    $0xc,%rax
    4fb3:	49 83 c4 0c          	add    $0xc,%r12
    4fb7:	48 39 d8             	cmp    %rbx,%rax
    4fba:	75 e4                	jne    4fa0 <_ZN4Mesh8read_objERSi+0x1170>
    4fbc:	4d 85 ff             	test   %r15,%r15
    4fbf:	74 08                	je     4fc9 <_ZN4Mesh8read_objERSi+0x1199>
    4fc1:	4c 89 ff             	mov    %r15,%rdi
    4fc4:	e8 b7 d1 ff ff       	call   2180 <_ZdlPv@plt>
    4fc9:	49 83 c4 0c          	add    $0xc,%r12
    4fcd:	48 8b 4c 24 20       	mov    0x20(%rsp),%rcx
    4fd2:	4c 89 69 50          	mov    %r13,0x50(%rcx)
    4fd6:	4c 89 61 58          	mov    %r12,0x58(%rcx)
    4fda:	48 8d 04 6d 00 00 00 	lea    0x0(,%rbp,2),%rax
    4fe1:	00 
    4fe2:	48 01 e8             	add    %rbp,%rax
    4fe5:	48 89 cd             	mov    %rcx,%rbp
    4fe8:	49 8d 44 85 00       	lea    0x0(%r13,%rax,4),%rax
    4fed:	48 89 41 60          	mov    %rax,0x60(%rcx)
    4ff1:	48 8b 5c 24 10       	mov    0x10(%rsp),%rbx
    4ff6:	4c 8d ac 24 48 01 00 	lea    0x148(%rsp),%r13
    4ffd:	00 
    4ffe:	49 ff c6             	inc    %r14
    5001:	4c 3b 74 24 28       	cmp    0x28(%rsp),%r14
    5006:	0f 85 4b fd ff ff    	jne    4d57 <_ZN4Mesh8read_objERSi+0xf27>
    500c:	48 8b 7c 24 30       	mov    0x30(%rsp),%rdi
    5011:	48 85 ff             	test   %rdi,%rdi
    5014:	74 05                	je     501b <_ZN4Mesh8read_objERSi+0x11eb>
    5016:	e8 65 d1 ff ff       	call   2180 <_ZdlPv@plt>
    501b:	48 8b 7c 24 18       	mov    0x18(%rsp),%rdi
    5020:	48 85 ff             	test   %rdi,%rdi
    5023:	74 05                	je     502a <_ZN4Mesh8read_objERSi+0x11fa>
    5025:	e8 56 d1 ff ff       	call   2180 <_ZdlPv@plt>
    502a:	48 8b 84 24 d8 00 00 	mov    0xd8(%rsp),%rax
    5031:	00 
    5032:	48 89 84 24 48 01 00 	mov    %rax,0x148(%rsp)
    5039:	00 
    503a:	48 8b 40 e8          	mov    -0x18(%rax),%rax
    503e:	48 8b 8c 24 c8 00 00 	mov    0xc8(%rsp),%rcx
    5045:	00 
    5046:	48 89 8c 04 48 01 00 	mov    %rcx,0x148(%rsp,%rax,1)
    504d:	00 
    504e:	48 8b 84 24 c0 00 00 	mov    0xc0(%rsp),%rax
    5055:	00 
    5056:	48 89 84 24 58 01 00 	mov    %rax,0x158(%rsp)
    505d:	00 
    505e:	48 8b 84 24 b0 00 00 	mov    0xb0(%rsp),%rax
    5065:	00 
    5066:	48 89 84 24 60 01 00 	mov    %rax,0x160(%rsp)
    506d:	00 
    506e:	48 8b bc 24 a8 01 00 	mov    0x1a8(%rsp),%rdi
    5075:	00 
    5076:	48 8d 84 24 b8 01 00 	lea    0x1b8(%rsp),%rax
    507d:	00 
    507e:	48 39 c7             	cmp    %rax,%rdi
    5081:	74 05                	je     5088 <_ZN4Mesh8read_objERSi+0x1258>
    5083:	e8 f8 d0 ff ff       	call   2180 <_ZdlPv@plt>
    5088:	48 8b 84 24 a8 00 00 	mov    0xa8(%rsp),%rax
    508f:	00 
    5090:	48 89 84 24 60 01 00 	mov    %rax,0x160(%rsp)
    5097:	00 
    5098:	48 8d bc 24 98 01 00 	lea    0x198(%rsp),%rdi
    509f:	00 
    50a0:	e8 ab d1 ff ff       	call   2250 <_ZNSt6localeD1Ev@plt>
    50a5:	48 8b 84 24 d0 00 00 	mov    0xd0(%rsp),%rax
    50ac:	00 
    50ad:	48 89 84 24 48 01 00 	mov    %rax,0x148(%rsp)
    50b4:	00 
    50b5:	48 8b 40 e8          	mov    -0x18(%rax),%rax
    50b9:	48 8b 8c 24 b8 00 00 	mov    0xb8(%rsp),%rcx
    50c0:	00 
    50c1:	48 89 8c 04 48 01 00 	mov    %rcx,0x148(%rsp,%rax,1)
    50c8:	00 
    50c9:	48 c7 84 24 50 01 00 	movq   $0x0,0x150(%rsp)
    50d0:	00 00 00 00 00 
    50d5:	48 8d bc 24 c8 01 00 	lea    0x1c8(%rsp),%rdi
    50dc:	00 
    50dd:	e8 be cf ff ff       	call   20a0 <_ZNSt8ios_baseD2Ev@plt>
    50e2:	48 8b 84 24 d8 00 00 	mov    0xd8(%rsp),%rax
    50e9:	00 
    50ea:	48 89 84 24 d0 02 00 	mov    %rax,0x2d0(%rsp)
    50f1:	00 
    50f2:	48 8b 40 e8          	mov    -0x18(%rax),%rax
    50f6:	48 8b 8c 24 c8 00 00 	mov    0xc8(%rsp),%rcx
    50fd:	00 
    50fe:	48 89 8c 04 d0 02 00 	mov    %rcx,0x2d0(%rsp,%rax,1)
    5105:	00 
    5106:	48 8b 84 24 c0 00 00 	mov    0xc0(%rsp),%rax
    510d:	00 
    510e:	48 89 84 24 e0 02 00 	mov    %rax,0x2e0(%rsp)
    5115:	00 
    5116:	48 8b 84 24 b0 00 00 	mov    0xb0(%rsp),%rax
    511d:	00 
    511e:	48 89 84 24 e8 02 00 	mov    %rax,0x2e8(%rsp)
    5125:	00 
    5126:	48 8b bc 24 30 03 00 	mov    0x330(%rsp),%rdi
    512d:	00 
    512e:	48 8d 84 24 40 03 00 	lea    0x340(%rsp),%rax
    5135:	00 
    5136:	48 39 c7             	cmp    %rax,%rdi
    5139:	74 05                	je     5140 <_ZN4Mesh8read_objERSi+0x1310>
    513b:	e8 40 d0 ff ff       	call   2180 <_ZdlPv@plt>
    5140:	48 8b 84 24 a8 00 00 	mov    0xa8(%rsp),%rax
    5147:	00 
    5148:	48 89 84 24 e8 02 00 	mov    %rax,0x2e8(%rsp)
    514f:	00 
    5150:	48 8d bc 24 20 03 00 	lea    0x320(%rsp),%rdi
    5157:	00 
    5158:	e8 f3 d0 ff ff       	call   2250 <_ZNSt6localeD1Ev@plt>
    515d:	48 8b 84 24 d0 00 00 	mov    0xd0(%rsp),%rax
    5164:	00 
    5165:	48 89 84 24 d0 02 00 	mov    %rax,0x2d0(%rsp)
    516c:	00 
    516d:	48 8b 40 e8          	mov    -0x18(%rax),%rax
    5171:	48 8b 8c 24 b8 00 00 	mov    0xb8(%rsp),%rcx
    5178:	00 
    5179:	48 89 8c 04 d0 02 00 	mov    %rcx,0x2d0(%rsp,%rax,1)
    5180:	00 
    5181:	48 c7 84 24 d8 02 00 	movq   $0x0,0x2d8(%rsp)
    5188:	00 00 00 00 00 
    518d:	48 8d bc 24 50 03 00 	lea    0x350(%rsp),%rdi
    5194:	00 
    5195:	e8 06 cf ff ff       	call   20a0 <_ZNSt8ios_baseD2Ev@plt>
    519a:	48 8b 03             	mov    (%rbx),%rax
    519d:	48 8b 40 e8          	mov    -0x18(%rax),%rax
    51a1:	4c 8b bc 03 f0 00 00 	mov    0xf0(%rbx,%rax,1),%r15
    51a8:	00 
    51a9:	4d 85 ff             	test   %r15,%r15
    51ac:	4c 8d b4 24 d0 02 00 	lea    0x2d0(%rsp),%r14
    51b3:	00 
    51b4:	0f 85 fe ed ff ff    	jne    3fb8 <_ZN4Mesh8read_objERSi+0x188>
    51ba:	e9 07 01 00 00       	jmp    52c6 <_ZN4Mesh8read_objERSi+0x1496>
    51bf:	48 01 c2             	add    %rax,%rdx
    51c2:	48 89 d6             	mov    %rdx,%rsi
    51c5:	48 01 c8             	add    %rcx,%rax
    51c8:	eb 12                	jmp    51dc <_ZN4Mesh8read_objERSi+0x13ac>
    51ca:	66 0f 1f 44 00 00    	nopw   0x0(%rax,%rax,1)
    51d0:	48 ff c6             	inc    %rsi
    51d3:	48 39 c6             	cmp    %rax,%rsi
    51d6:	0f 84 22 f8 ff ff    	je     49fe <_ZN4Mesh8read_objERSi+0xbce>
    51dc:	80 3e 2f             	cmpb   $0x2f,(%rsi)
    51df:	75 ef                	jne    51d0 <_ZN4Mesh8read_objERSi+0x13a0>
    51e1:	c6 06 20             	movb   $0x20,(%rsi)
    51e4:	eb ea                	jmp    51d0 <_ZN4Mesh8read_objERSi+0x13a0>
    51e6:	48 8b 3d e3 8d 00 00 	mov    0x8de3(%rip),%rdi        # dfd0 <_ZSt4cout@GLIBCXX_3.4>
    51ed:	48 8d 35 a7 5e 00 00 	lea    0x5ea7(%rip),%rsi        # b09b <_IO_stdin_used+0x9b>
    51f4:	ba 0f 00 00 00       	mov    $0xf,%edx
    51f9:	e8 e2 cf ff ff       	call   21e0 <_ZSt16__ostream_insertIcSt11char_traitsIcEERSt13basic_ostreamIT_T0_ES6_PKS3_l@plt>
    51fe:	48 8b 75 70          	mov    0x70(%rbp),%rsi
    5202:	48 2b 75 68          	sub    0x68(%rbp),%rsi
    5206:	48 c1 fe 02          	sar    $0x2,%rsi
    520a:	48 b8 ab aa aa aa aa 	movabs $0xaaaaaaaaaaaaaaab,%rax
    5211:	aa aa aa 
    5214:	48 0f af f0          	imul   %rax,%rsi
    5218:	48 8b 3d b1 8d 00 00 	mov    0x8db1(%rip),%rdi        # dfd0 <_ZSt4cout@GLIBCXX_3.4>
    521f:	e8 fc ce ff ff       	call   2120 <_ZNSo9_M_insertImEERSoT_@plt>
    5224:	48 8d 35 06 61 00 00 	lea    0x6106(%rip),%rsi        # b331 <_ZTS4Mesh+0x193>
    522b:	ba 01 00 00 00       	mov    $0x1,%edx
    5230:	48 89 c7             	mov    %rax,%rdi
    5233:	e8 a8 cf ff ff       	call   21e0 <_ZSt16__ostream_insertIcSt11char_traitsIcEERSt13basic_ostreamIT_T0_ES6_PKS3_l@plt>
    5238:	48 8b bc 24 88 00 00 	mov    0x88(%rsp),%rdi
    523f:	00 
    5240:	48 8d 84 24 98 00 00 	lea    0x98(%rsp),%rax
    5247:	00 
    5248:	48 39 c7             	cmp    %rax,%rdi
    524b:	74 05                	je     5252 <_ZN4Mesh8read_objERSi+0x1422>
    524d:	e8 2e cf ff ff       	call   2180 <_ZdlPv@plt>
    5252:	48 8b bc 24 e0 00 00 	mov    0xe0(%rsp),%rdi
    5259:	00 
    525a:	48 8d 84 24 f0 00 00 	lea    0xf0(%rsp),%rax
    5261:	00 
    5262:	48 39 c7             	cmp    %rax,%rdi
    5265:	74 05                	je     526c <_ZN4Mesh8read_objERSi+0x143c>
    5267:	e8 14 cf ff ff       	call   2180 <_ZdlPv@plt>
    526c:	48 8b bc 24 00 01 00 	mov    0x100(%rsp),%rdi
    5273:	00 
    5274:	48 8d 84 24 10 01 00 	lea    0x110(%rsp),%rax
    527b:	00 
    527c:	48 39 c7             	cmp    %rax,%rdi
    527f:	74 05                	je     5286 <_ZN4Mesh8read_objERSi+0x1456>
    5281:	e8 fa ce ff ff       	call   2180 <_ZdlPv@plt>
    5286:	48 8b bc 24 20 01 00 	mov    0x120(%rsp),%rdi
    528d:	00 
    528e:	48 8d 84 24 30 01 00 	lea    0x130(%rsp),%rax
    5295:	00 
    5296:	48 39 c7             	cmp    %rax,%rdi
    5299:	74 05                	je     52a0 <_ZN4Mesh8read_objERSi+0x1470>
    529b:	e8 e0 ce ff ff       	call   2180 <_ZdlPv@plt>
    52a0:	48 8b 7c 24 68       	mov    0x68(%rsp),%rdi
    52a5:	48 8d 44 24 78       	lea    0x78(%rsp),%rax
    52aa:	48 39 c7             	cmp    %rax,%rdi
    52ad:	74 05                	je     52b4 <_ZN4Mesh8read_objERSi+0x1484>
    52af:	e8 cc ce ff ff       	call   2180 <_ZdlPv@plt>
    52b4:	48 81 c4 58 04 00 00 	add    $0x458,%rsp
    52bb:	5b                   	pop    %rbx
    52bc:	41 5c                	pop    %r12
    52be:	41 5d                	pop    %r13
    52c0:	41 5e                	pop    %r14
    52c2:	41 5f                	pop    %r15
    52c4:	5d                   	pop    %rbp
    52c5:	c3                   	ret    
    52c6:	e8 45 cf ff ff       	call   2210 <_ZSt16__throw_bad_castv@plt>
    52cb:	48 8d 3d 81 5e 00 00 	lea    0x5e81(%rip),%rdi        # b153 <_IO_stdin_used+0x153>
    52d2:	e8 f9 cd ff ff       	call   20d0 <_ZSt20__throw_length_errorPKc@plt>
    52d7:	48 8d 3d 75 5e 00 00 	lea    0x5e75(%rip),%rdi        # b153 <_IO_stdin_used+0x153>
    52de:	e8 ed cd ff ff       	call   20d0 <_ZSt20__throw_length_errorPKc@plt>
    52e3:	48 8d 3d 69 5e 00 00 	lea    0x5e69(%rip),%rdi        # b153 <_IO_stdin_used+0x153>
    52ea:	e8 e1 cd ff ff       	call   20d0 <_ZSt20__throw_length_errorPKc@plt>
    52ef:	48 8d 3d 5d 5e 00 00 	lea    0x5e5d(%rip),%rdi        # b153 <_IO_stdin_used+0x153>
    52f6:	e8 d5 cd ff ff       	call   20d0 <_ZSt20__throw_length_errorPKc@plt>
    52fb:	48 8d 3d 51 5e 00 00 	lea    0x5e51(%rip),%rdi        # b153 <_IO_stdin_used+0x153>
    5302:	e8 c9 cd ff ff       	call   20d0 <_ZSt20__throw_length_errorPKc@plt>
    5307:	eb 11                	jmp    531a <_ZN4Mesh8read_objERSi+0x14ea>
    5309:	eb 23                	jmp    532e <_ZN4Mesh8read_objERSi+0x14fe>
    530b:	eb 0d                	jmp    531a <_ZN4Mesh8read_objERSi+0x14ea>
    530d:	48 89 c3             	mov    %rax,%rbx
    5310:	eb 3d                	jmp    534f <_ZN4Mesh8read_objERSi+0x151f>
    5312:	eb 06                	jmp    531a <_ZN4Mesh8read_objERSi+0x14ea>
    5314:	eb 04                	jmp    531a <_ZN4Mesh8read_objERSi+0x14ea>
    5316:	eb 02                	jmp    531a <_ZN4Mesh8read_objERSi+0x14ea>
    5318:	eb 0f                	jmp    5329 <_ZN4Mesh8read_objERSi+0x14f9>
    531a:	48 89 c3             	mov    %rax,%rbx
    531d:	eb 3d                	jmp    535c <_ZN4Mesh8read_objERSi+0x152c>
    531f:	eb 0d                	jmp    532e <_ZN4Mesh8read_objERSi+0x14fe>
    5321:	eb 0b                	jmp    532e <_ZN4Mesh8read_objERSi+0x14fe>
    5323:	eb 09                	jmp    532e <_ZN4Mesh8read_objERSi+0x14fe>
    5325:	eb 02                	jmp    5329 <_ZN4Mesh8read_objERSi+0x14f9>
    5327:	eb 05                	jmp    532e <_ZN4Mesh8read_objERSi+0x14fe>
    5329:	48 89 c3             	mov    %rax,%rbx
    532c:	eb 3b                	jmp    5369 <_ZN4Mesh8read_objERSi+0x1539>
    532e:	48 89 c3             	mov    %rax,%rbx
    5331:	48 8b 7c 24 30       	mov    0x30(%rsp),%rdi
    5336:	48 85 ff             	test   %rdi,%rdi
    5339:	74 05                	je     5340 <_ZN4Mesh8read_objERSi+0x1510>
    533b:	e8 40 ce ff ff       	call   2180 <_ZdlPv@plt>
    5340:	48 8b 7c 24 18       	mov    0x18(%rsp),%rdi
    5345:	48 85 ff             	test   %rdi,%rdi
    5348:	74 05                	je     534f <_ZN4Mesh8read_objERSi+0x151f>
    534a:	e8 31 ce ff ff       	call   2180 <_ZdlPv@plt>
    534f:	48 8d bc 24 48 01 00 	lea    0x148(%rsp),%rdi
    5356:	00 
    5357:	e8 d4 cd ff ff       	call   2130 <_ZNSt7__cxx1118basic_stringstreamIcSt11char_traitsIcESaIcEED1Ev@plt>
    535c:	48 8d bc 24 d0 02 00 	lea    0x2d0(%rsp),%rdi
    5363:	00 
    5364:	e8 c7 cd ff ff       	call   2130 <_ZNSt7__cxx1118basic_stringstreamIcSt11char_traitsIcESaIcEED1Ev@plt>
    5369:	48 8b bc 24 88 00 00 	mov    0x88(%rsp),%rdi
    5370:	00 
    5371:	48 8d 84 24 98 00 00 	lea    0x98(%rsp),%rax
    5378:	00 
    5379:	48 39 c7             	cmp    %rax,%rdi
    537c:	75 56                	jne    53d4 <_ZN4Mesh8read_objERSi+0x15a4>
    537e:	48 8b bc 24 e0 00 00 	mov    0xe0(%rsp),%rdi
    5385:	00 
    5386:	48 8d 84 24 f0 00 00 	lea    0xf0(%rsp),%rax
    538d:	00 
    538e:	48 39 c7             	cmp    %rax,%rdi
    5391:	75 5b                	jne    53ee <_ZN4Mesh8read_objERSi+0x15be>
    5393:	48 8b bc 24 00 01 00 	mov    0x100(%rsp),%rdi
    539a:	00 
    539b:	48 8d 84 24 10 01 00 	lea    0x110(%rsp),%rax
    53a2:	00 
    53a3:	48 39 c7             	cmp    %rax,%rdi
    53a6:	75 60                	jne    5408 <_ZN4Mesh8read_objERSi+0x15d8>
    53a8:	48 8b bc 24 20 01 00 	mov    0x120(%rsp),%rdi
    53af:	00 
    53b0:	48 8d 84 24 30 01 00 	lea    0x130(%rsp),%rax
    53b7:	00 
    53b8:	48 39 c7             	cmp    %rax,%rdi
    53bb:	75 65                	jne    5422 <_ZN4Mesh8read_objERSi+0x15f2>
    53bd:	48 8b 7c 24 68       	mov    0x68(%rsp),%rdi
    53c2:	48 8d 44 24 78       	lea    0x78(%rsp),%rax
    53c7:	48 39 c7             	cmp    %rax,%rdi
    53ca:	75 6a                	jne    5436 <_ZN4Mesh8read_objERSi+0x1606>
    53cc:	48 89 df             	mov    %rbx,%rdi
    53cf:	e8 3c cf ff ff       	call   2310 <_Unwind_Resume@plt>
    53d4:	e8 a7 cd ff ff       	call   2180 <_ZdlPv@plt>
    53d9:	48 8b bc 24 e0 00 00 	mov    0xe0(%rsp),%rdi
    53e0:	00 
    53e1:	48 8d 84 24 f0 00 00 	lea    0xf0(%rsp),%rax
    53e8:	00 
    53e9:	48 39 c7             	cmp    %rax,%rdi
    53ec:	74 a5                	je     5393 <_ZN4Mesh8read_objERSi+0x1563>
    53ee:	e8 8d cd ff ff       	call   2180 <_ZdlPv@plt>
    53f3:	48 8b bc 24 00 01 00 	mov    0x100(%rsp),%rdi
    53fa:	00 
    53fb:	48 8d 84 24 10 01 00 	lea    0x110(%rsp),%rax
    5402:	00 
    5403:	48 39 c7             	cmp    %rax,%rdi
    5406:	74 a0                	je     53a8 <_ZN4Mesh8read_objERSi+0x1578>
    5408:	e8 73 cd ff ff       	call   2180 <_ZdlPv@plt>
    540d:	48 8b bc 24 20 01 00 	mov    0x120(%rsp),%rdi
    5414:	00 
    5415:	48 8d 84 24 30 01 00 	lea    0x130(%rsp),%rax
    541c:	00 
    541d:	48 39 c7             	cmp    %rax,%rdi
    5420:	74 9b                	je     53bd <_ZN4Mesh8read_objERSi+0x158d>
    5422:	e8 59 cd ff ff       	call   2180 <_ZdlPv@plt>
    5427:	48 8b 7c 24 68       	mov    0x68(%rsp),%rdi
    542c:	48 8d 44 24 78       	lea    0x78(%rsp),%rax
    5431:	48 39 c7             	cmp    %rax,%rdi
    5434:	74 96                	je     53cc <_ZN4Mesh8read_objERSi+0x159c>
    5436:	e8 45 cd ff ff       	call   2180 <_ZdlPv@plt>
    543b:	48 89 df             	mov    %rbx,%rdi
    543e:	e8 cd ce ff ff       	call   2310 <_Unwind_Resume@plt>
    5443:	66 66 66 66 2e 0f 1f 	data16 data16 data16 cs nopw 0x0(%rax,%rax,1)
    544a:	84 00 00 00 00 00 

0000000000005450 <_ZN4Mesh8read_plyERSi>:
    5450:	55                   	push   %rbp
    5451:	41 57                	push   %r15
    5453:	41 56                	push   %r14
    5455:	41 55                	push   %r13
    5457:	41 54                	push   %r12
    5459:	53                   	push   %rbx
    545a:	48 81 ec f8 03 00 00 	sub    $0x3f8,%rsp
    5461:	48 89 f3             	mov    %rsi,%rbx
    5464:	48 89 bc 24 b0 00 00 	mov    %rdi,0xb0(%rsp)
    546b:	00 
    546c:	4c 8d 74 24 40       	lea    0x40(%rsp),%r14
    5471:	4c 89 74 24 30       	mov    %r14,0x30(%rsp)
    5476:	48 c7 44 24 38 00 00 	movq   $0x0,0x38(%rsp)
    547d:	00 00 
    547f:	c6 44 24 40 00       	movb   $0x0,0x40(%rsp)
    5484:	4c 8d ac 24 a0 00 00 	lea    0xa0(%rsp),%r13
    548b:	00 
    548c:	4c 89 ac 24 90 00 00 	mov    %r13,0x90(%rsp)
    5493:	00 
    5494:	48 b8 65 6c 65 6d 65 	movabs $0x20746e656d656c65,%rax
    549b:	6e 74 20 
    549e:	48 89 84 24 a0 00 00 	mov    %rax,0xa0(%rsp)
    54a5:	00 
    54a6:	48 b9 74 20 76 65 72 	movabs $0x7865747265762074,%rcx
    54ad:	74 65 78 
    54b0:	48 89 8c 24 a6 00 00 	mov    %rcx,0xa6(%rsp)
    54b7:	00 
    54b8:	48 c7 84 24 98 00 00 	movq   $0xe,0x98(%rsp)
    54bf:	00 0e 00 00 00 
    54c4:	c6 84 24 ae 00 00 00 	movb   $0x0,0xae(%rsp)
    54cb:	00 
    54cc:	48 8d ac 24 80 00 00 	lea    0x80(%rsp),%rbp
    54d3:	00 
    54d4:	48 89 6c 24 70       	mov    %rbp,0x70(%rsp)
    54d9:	48 89 84 24 80 00 00 	mov    %rax,0x80(%rsp)
    54e0:	00 
    54e1:	c7 84 24 88 00 00 00 	movl   $0x65636166,0x88(%rsp)
    54e8:	66 61 63 65 
    54ec:	48 c7 44 24 78 0c 00 	movq   $0xc,0x78(%rsp)
    54f3:	00 00 
    54f5:	c6 84 24 8c 00 00 00 	movb   $0x0,0x8c(%rsp)
    54fc:	00 
    54fd:	48 8d 44 24 20       	lea    0x20(%rsp),%rax
    5502:	48 89 44 24 10       	mov    %rax,0x10(%rsp)
    5507:	48 c7 84 24 e8 00 00 	movq   $0x10,0xe8(%rsp)
    550e:	00 10 00 00 00 
    5513:	48 8d 7c 24 10       	lea    0x10(%rsp),%rdi
    5518:	48 8d b4 24 e8 00 00 	lea    0xe8(%rsp),%rsi
    551f:	00 
    5520:	31 d2                	xor    %edx,%edx
    5522:	e8 f9 cd ff ff       	call   2320 <_ZNSt7__cxx1112basic_stringIcSt11char_traitsIcESaIcEE9_M_createERmm@plt>
    5527:	48 89 44 24 10       	mov    %rax,0x10(%rsp)
    552c:	48 8b 8c 24 e8 00 00 	mov    0xe8(%rsp),%rcx
    5533:	00 
    5534:	48 89 4c 24 20       	mov    %rcx,0x20(%rsp)
    5539:	0f 10 05 87 5b 00 00 	movups 0x5b87(%rip),%xmm0        # b0c7 <_IO_stdin_used+0xc7>
    5540:	0f 11 00             	movups %xmm0,(%rax)
    5543:	48 89 4c 24 18       	mov    %rcx,0x18(%rsp)
    5548:	48 8b 44 24 10       	mov    0x10(%rsp),%rax
    554d:	c6 04 08 00          	movb   $0x0,(%rax,%rcx,1)
    5551:	48 8d 84 24 c8 00 00 	lea    0xc8(%rsp),%rax
    5558:	00 
    5559:	48 89 84 24 b8 00 00 	mov    %rax,0xb8(%rsp)
    5560:	00 
    5561:	48 b8 65 6e 64 5f 68 	movabs $0x646165685f646e65,%rax
    5568:	65 61 64 
    556b:	48 89 84 24 c8 00 00 	mov    %rax,0xc8(%rsp)
    5572:	00 
    5573:	66 c7 84 24 d0 00 00 	movw   $0x7265,0xd0(%rsp)
    557a:	00 65 72 
    557d:	48 c7 84 24 c0 00 00 	movq   $0xa,0xc0(%rsp)
    5584:	00 0a 00 00 00 
    5589:	c6 84 24 d2 00 00 00 	movb   $0x0,0xd2(%rsp)
    5590:	00 
    5591:	4c 8d 7c 24 30       	lea    0x30(%rsp),%r15
    5596:	66 2e 0f 1f 84 00 00 	cs nopw 0x0(%rax,%rax,1)
    559d:	00 00 00 
    55a0:	48 8b 03             	mov    (%rbx),%rax
    55a3:	48 8b 40 e8          	mov    -0x18(%rax),%rax
    55a7:	4c 8b a4 03 f0 00 00 	mov    0xf0(%rbx,%rax,1),%r12
    55ae:	00 
    55af:	4d 85 e4             	test   %r12,%r12
    55b2:	0f 84 a1 06 00 00    	je     5c59 <_ZN4Mesh8read_plyERSi+0x809>
    55b8:	41 80 7c 24 38 00    	cmpb   $0x0,0x38(%r12)
    55be:	74 10                	je     55d0 <_ZN4Mesh8read_plyERSi+0x180>
    55c0:	41 0f b6 44 24 43    	movzbl 0x43(%r12),%eax
    55c6:	eb 1f                	jmp    55e7 <_ZN4Mesh8read_plyERSi+0x197>
    55c8:	0f 1f 84 00 00 00 00 	nopl   0x0(%rax,%rax,1)
    55cf:	00 
    55d0:	4c 89 e7             	mov    %r12,%rdi
    55d3:	e8 18 cc ff ff       	call   21f0 <_ZNKSt5ctypeIcE13_M_widen_initEv@plt>
    55d8:	49 8b 04 24          	mov    (%r12),%rax
    55dc:	4c 89 e7             	mov    %r12,%rdi
    55df:	be 0a 00 00 00       	mov    $0xa,%esi
    55e4:	ff 50 30             	call   *0x30(%rax)
    55e7:	0f be d0             	movsbl %al,%edx
    55ea:	48 89 df             	mov    %rbx,%rdi
    55ed:	4c 89 fe             	mov    %r15,%rsi
    55f0:	e8 3b cd ff ff       	call   2330 <_ZSt7getlineIcSt11char_traitsIcESaIcEERSt13basic_istreamIT_T0_ES7_RNSt7__cxx1112basic_stringIS4_S5_T1_EES4_@plt>
    55f5:	48 8b b4 24 90 00 00 	mov    0x90(%rsp),%rsi
    55fc:	00 
    55fd:	48 8b 8c 24 98 00 00 	mov    0x98(%rsp),%rcx
    5604:	00 
    5605:	4c 89 ff             	mov    %r15,%rdi
    5608:	31 d2                	xor    %edx,%edx
    560a:	e8 f1 cc ff ff       	call   2300 <_ZNKSt7__cxx1112basic_stringIcSt11char_traitsIcESaIcEE4findEPKcmm@plt>
    560f:	48 83 f8 ff          	cmp    $0xffffffffffffffff,%rax
    5613:	74 8b                	je     55a0 <_ZN4Mesh8read_plyERSi+0x150>
    5615:	4c 8d 64 24 60       	lea    0x60(%rsp),%r12
    561a:	4c 89 64 24 50       	mov    %r12,0x50(%rsp)
    561f:	48 c7 44 24 58 00 00 	movq   $0x0,0x58(%rsp)
    5626:	00 00 
    5628:	c6 44 24 60 00       	movb   $0x0,0x60(%rsp)
    562d:	48 8d bc 24 e8 00 00 	lea    0xe8(%rsp),%rdi
    5634:	00 
    5635:	48 8d 74 24 30       	lea    0x30(%rsp),%rsi
    563a:	ba 18 00 00 00       	mov    $0x18,%edx
    563f:	e8 4c cc ff ff       	call   2290 <_ZNSt7__cxx1118basic_stringstreamIcSt11char_traitsIcESaIcEEC1ERKNS_12basic_stringIcS2_S3_EESt13_Ios_Openmode@plt>
    5644:	48 8d bc 24 e8 00 00 	lea    0xe8(%rsp),%rdi
    564b:	00 
    564c:	48 8d 74 24 50       	lea    0x50(%rsp),%rsi
    5651:	e8 ca cb ff ff       	call   2220 <_ZStrsIcSt11char_traitsIcESaIcEERSt13basic_istreamIT_T0_ES7_RNSt7__cxx1112basic_stringIS4_S5_T1_EE@plt>
    5656:	48 8d 74 24 50       	lea    0x50(%rsp),%rsi
    565b:	48 89 c7             	mov    %rax,%rdi
    565e:	e8 bd cb ff ff       	call   2220 <_ZStrsIcSt11char_traitsIcESaIcEERSt13basic_istreamIT_T0_ES7_RNSt7__cxx1112basic_stringIS4_S5_T1_EE@plt>
    5663:	48 8d bc 24 e8 00 00 	lea    0xe8(%rsp),%rdi
    566a:	00 
    566b:	48 8d 74 24 08       	lea    0x8(%rsp),%rsi
    5670:	e8 7b ca ff ff       	call   20f0 <_ZNSirsERi@plt>
    5675:	48 8b 03             	mov    (%rbx),%rax
    5678:	48 8b 40 e8          	mov    -0x18(%rax),%rax
    567c:	4c 8b a4 03 f0 00 00 	mov    0xf0(%rbx,%rax,1),%r12
    5683:	00 
    5684:	4d 85 e4             	test   %r12,%r12
    5687:	0f 84 9a 00 00 00    	je     5727 <_ZN4Mesh8read_plyERSi+0x2d7>
    568d:	45 31 ed             	xor    %r13d,%r13d
    5690:	4c 8d 7c 24 30       	lea    0x30(%rsp),%r15
    5695:	bd 01 00 00 00       	mov    $0x1,%ebp
    569a:	66 0f 1f 44 00 00    	nopw   0x0(%rax,%rax,1)
    56a0:	41 80 7c 24 38 00    	cmpb   $0x0,0x38(%r12)
    56a6:	74 08                	je     56b0 <_ZN4Mesh8read_plyERSi+0x260>
    56a8:	41 0f b6 44 24 43    	movzbl 0x43(%r12),%eax
    56ae:	eb 17                	jmp    56c7 <_ZN4Mesh8read_plyERSi+0x277>
    56b0:	4c 89 e7             	mov    %r12,%rdi
    56b3:	e8 38 cb ff ff       	call   21f0 <_ZNKSt5ctypeIcE13_M_widen_initEv@plt>
    56b8:	49 8b 04 24          	mov    (%r12),%rax
    56bc:	4c 89 e7             	mov    %r12,%rdi
    56bf:	be 0a 00 00 00       	mov    $0xa,%esi
    56c4:	ff 50 30             	call   *0x30(%rax)
    56c7:	0f be d0             	movsbl %al,%edx
    56ca:	48 89 df             	mov    %rbx,%rdi
    56cd:	4c 89 fe             	mov    %r15,%rsi
    56d0:	e8 5b cc ff ff       	call   2330 <_ZSt7getlineIcSt11char_traitsIcESaIcEERSt13basic_istreamIT_T0_ES7_RNSt7__cxx1112basic_stringIS4_S5_T1_EES4_@plt>
    56d5:	48 8b 74 24 70       	mov    0x70(%rsp),%rsi
    56da:	48 8b 4c 24 78       	mov    0x78(%rsp),%rcx
    56df:	4c 89 ff             	mov    %r15,%rdi
    56e2:	31 d2                	xor    %edx,%edx
    56e4:	e8 17 cc ff ff       	call   2300 <_ZNKSt7__cxx1112basic_stringIcSt11char_traitsIcESaIcEE4findEPKcmm@plt>
    56e9:	48 83 f8 ff          	cmp    $0xffffffffffffffff,%rax
    56ed:	75 3d                	jne    572c <_ZN4Mesh8read_plyERSi+0x2dc>
    56ef:	48 8b 74 24 10       	mov    0x10(%rsp),%rsi
    56f4:	48 8b 4c 24 18       	mov    0x18(%rsp),%rcx
    56f9:	4c 89 ff             	mov    %r15,%rdi
    56fc:	31 d2                	xor    %edx,%edx
    56fe:	e8 fd cb ff ff       	call   2300 <_ZNKSt7__cxx1112basic_stringIcSt11char_traitsIcESaIcEE4findEPKcmm@plt>
    5703:	48 83 f8 ff          	cmp    $0xffffffffffffffff,%rax
    5707:	45 0f b6 ed          	movzbl %r13b,%r13d
    570b:	44 0f 45 ed          	cmovne %ebp,%r13d
    570f:	48 8b 03             	mov    (%rbx),%rax
    5712:	48 8b 40 e8          	mov    -0x18(%rax),%rax
    5716:	4c 8b a4 03 f0 00 00 	mov    0xf0(%rbx,%rax,1),%r12
    571d:	00 
    571e:	4d 85 e4             	test   %r12,%r12
    5721:	0f 85 79 ff ff ff    	jne    56a0 <_ZN4Mesh8read_plyERSi+0x250>
    5727:	e8 e4 ca ff ff       	call   2210 <_ZSt16__throw_bad_castv@plt>
    572c:	48 8d bc 24 70 02 00 	lea    0x270(%rsp),%rdi
    5733:	00 
    5734:	48 8d 74 24 30       	lea    0x30(%rsp),%rsi
    5739:	ba 18 00 00 00       	mov    $0x18,%edx
    573e:	e8 4d cb ff ff       	call   2290 <_ZNSt7__cxx1118basic_stringstreamIcSt11char_traitsIcESaIcEEC1ERKNS_12basic_stringIcS2_S3_EESt13_Ios_Openmode@plt>
    5743:	48 8d bc 24 70 02 00 	lea    0x270(%rsp),%rdi
    574a:	00 
    574b:	48 8d 74 24 50       	lea    0x50(%rsp),%rsi
    5750:	e8 cb ca ff ff       	call   2220 <_ZStrsIcSt11char_traitsIcESaIcEERSt13basic_istreamIT_T0_ES7_RNSt7__cxx1112basic_stringIS4_S5_T1_EE@plt>
    5755:	48 8b ac 24 b0 00 00 	mov    0xb0(%rsp),%rbp
    575c:	00 
    575d:	48 8d 74 24 50       	lea    0x50(%rsp),%rsi
    5762:	48 89 c7             	mov    %rax,%rdi
    5765:	e8 b6 ca ff ff       	call   2220 <_ZStrsIcSt11char_traitsIcESaIcEERSt13basic_istreamIT_T0_ES7_RNSt7__cxx1112basic_stringIS4_S5_T1_EE@plt>
    576a:	48 8d bc 24 70 02 00 	lea    0x270(%rsp),%rdi
    5771:	00 
    5772:	48 8d 74 24 0c       	lea    0xc(%rsp),%rsi
    5777:	e8 74 c9 ff ff       	call   20f0 <_ZNSirsERi@plt>
    577c:	4c 8d 7c 24 30       	lea    0x30(%rsp),%r15
    5781:	66 66 66 66 66 66 2e 	data16 data16 data16 data16 data16 cs nopw 0x0(%rax,%rax,1)
    5788:	0f 1f 84 00 00 00 00 
    578f:	00 
    5790:	48 8b 03             	mov    (%rbx),%rax
    5793:	48 8b 40 e8          	mov    -0x18(%rax),%rax
    5797:	4c 8b a4 03 f0 00 00 	mov    0xf0(%rbx,%rax,1),%r12
    579e:	00 
    579f:	4d 85 e4             	test   %r12,%r12
    57a2:	0f 84 b6 04 00 00    	je     5c5e <_ZN4Mesh8read_plyERSi+0x80e>
    57a8:	41 80 7c 24 38 00    	cmpb   $0x0,0x38(%r12)
    57ae:	74 10                	je     57c0 <_ZN4Mesh8read_plyERSi+0x370>
    57b0:	41 0f b6 44 24 43    	movzbl 0x43(%r12),%eax
    57b6:	eb 1f                	jmp    57d7 <_ZN4Mesh8read_plyERSi+0x387>
    57b8:	0f 1f 84 00 00 00 00 	nopl   0x0(%rax,%rax,1)
    57bf:	00 
    57c0:	4c 89 e7             	mov    %r12,%rdi
    57c3:	e8 28 ca ff ff       	call   21f0 <_ZNKSt5ctypeIcE13_M_widen_initEv@plt>
    57c8:	49 8b 04 24          	mov    (%r12),%rax
    57cc:	4c 89 e7             	mov    %r12,%rdi
    57cf:	be 0a 00 00 00       	mov    $0xa,%esi
    57d4:	ff 50 30             	call   *0x30(%rax)
    57d7:	0f be d0             	movsbl %al,%edx
    57da:	48 89 df             	mov    %rbx,%rdi
    57dd:	4c 89 fe             	mov    %r15,%rsi
    57e0:	e8 4b cb ff ff       	call   2330 <_ZSt7getlineIcSt11char_traitsIcESaIcEERSt13basic_istreamIT_T0_ES7_RNSt7__cxx1112basic_stringIS4_S5_T1_EES4_@plt>
    57e5:	48 8b b4 24 b8 00 00 	mov    0xb8(%rsp),%rsi
    57ec:	00 
    57ed:	48 8b 8c 24 c0 00 00 	mov    0xc0(%rsp),%rcx
    57f4:	00 
    57f5:	4c 89 ff             	mov    %r15,%rdi
    57f8:	31 d2                	xor    %edx,%edx
    57fa:	e8 01 cb ff ff       	call   2300 <_ZNKSt7__cxx1112basic_stringIcSt11char_traitsIcESaIcEE4findEPKcmm@plt>
    57ff:	48 83 f8 ff          	cmp    $0xffffffffffffffff,%rax
    5803:	74 8b                	je     5790 <_ZN4Mesh8read_plyERSi+0x340>
    5805:	4c 8d 65 08          	lea    0x8(%rbp),%r12
    5809:	48 63 44 24 08       	movslq 0x8(%rsp),%rax
    580e:	48 8b 55 08          	mov    0x8(%rbp),%rdx
    5812:	48 8b 4d 10          	mov    0x10(%rbp),%rcx
    5816:	48 89 cf             	mov    %rcx,%rdi
    5819:	48 29 d7             	sub    %rdx,%rdi
    581c:	48 c1 ff 03          	sar    $0x3,%rdi
    5820:	49 be ab aa aa aa aa 	movabs $0xaaaaaaaaaaaaaaab,%r14
    5827:	aa aa aa 
    582a:	49 0f af fe          	imul   %r14,%rdi
    582e:	48 89 c6             	mov    %rax,%rsi
    5831:	48 29 fe             	sub    %rdi,%rsi
    5834:	76 0a                	jbe    5840 <_ZN4Mesh8read_plyERSi+0x3f0>
    5836:	4c 89 e7             	mov    %r12,%rdi
    5839:	e8 e2 27 00 00       	call   8020 <_ZNSt6vectorIN7CompFab10Vec3StructESaIS1_EE17_M_default_appendEm>
    583e:	eb 13                	jmp    5853 <_ZN4Mesh8read_plyERSi+0x403>
    5840:	73 11                	jae    5853 <_ZN4Mesh8read_plyERSi+0x403>
    5842:	48 8d 04 40          	lea    (%rax,%rax,2),%rax
    5846:	48 8d 04 c2          	lea    (%rdx,%rax,8),%rax
    584a:	48 39 c1             	cmp    %rax,%rcx
    584d:	74 04                	je     5853 <_ZN4Mesh8read_plyERSi+0x403>
    584f:	48 89 45 10          	mov    %rax,0x10(%rbp)
    5853:	48 8d 7d 68          	lea    0x68(%rbp),%rdi
    5857:	48 63 44 24 0c       	movslq 0xc(%rsp),%rax
    585c:	48 8b 55 68          	mov    0x68(%rbp),%rdx
    5860:	48 8b 4d 70          	mov    0x70(%rbp),%rcx
    5864:	49 89 c8             	mov    %rcx,%r8
    5867:	49 29 d0             	sub    %rdx,%r8
    586a:	49 c1 f8 02          	sar    $0x2,%r8
    586e:	4d 0f af c6          	imul   %r14,%r8
    5872:	48 89 c6             	mov    %rax,%rsi
    5875:	4c 29 c6             	sub    %r8,%rsi
    5878:	48 89 bc 24 d8 00 00 	mov    %rdi,0xd8(%rsp)
    587f:	00 
    5880:	76 07                	jbe    5889 <_ZN4Mesh8read_plyERSi+0x439>
    5882:	e8 79 29 00 00       	call   8200 <_ZNSt6vectorIN7CompFab11Vec3iStructESaIS1_EE17_M_default_appendEm>
    5887:	eb 13                	jmp    589c <_ZN4Mesh8read_plyERSi+0x44c>
    5889:	73 11                	jae    589c <_ZN4Mesh8read_plyERSi+0x44c>
    588b:	48 8d 04 40          	lea    (%rax,%rax,2),%rax
    588f:	48 8d 04 82          	lea    (%rdx,%rax,4),%rax
    5893:	48 39 c1             	cmp    %rax,%rcx
    5896:	74 04                	je     589c <_ZN4Mesh8read_plyERSi+0x44c>
    5898:	48 89 45 70          	mov    %rax,0x70(%rbp)
    589c:	8b 44 24 08          	mov    0x8(%rsp),%eax
    58a0:	41 f6 c5 01          	test   $0x1,%r13b
    58a4:	75 09                	jne    58af <_ZN4Mesh8read_plyERSi+0x45f>
    58a6:	85 c0                	test   %eax,%eax
    58a8:	7f 4e                	jg     58f8 <_ZN4Mesh8read_plyERSi+0x4a8>
    58aa:	e9 5c 01 00 00       	jmp    5a0b <_ZN4Mesh8read_plyERSi+0x5bb>
    58af:	48 63 c8             	movslq %eax,%rcx
    58b2:	48 8b 7d 38          	mov    0x38(%rbp),%rdi
    58b6:	48 8b 55 40          	mov    0x40(%rbp),%rdx
    58ba:	49 89 d0             	mov    %rdx,%r8
    58bd:	49 29 f8             	sub    %rdi,%r8
    58c0:	49 c1 f8 03          	sar    $0x3,%r8
    58c4:	48 89 ce             	mov    %rcx,%rsi
    58c7:	4c 29 c6             	sub    %r8,%rsi
    58ca:	76 0f                	jbe    58db <_ZN4Mesh8read_plyERSi+0x48b>
    58cc:	48 8d 7d 38          	lea    0x38(%rbp),%rdi
    58d0:	e8 0b 2b 00 00       	call   83e0 <_ZNSt6vectorIN7CompFab11Vec2fStructESaIS1_EE17_M_default_appendEm>
    58d5:	8b 44 24 08          	mov    0x8(%rsp),%eax
    58d9:	eb 0f                	jmp    58ea <_ZN4Mesh8read_plyERSi+0x49a>
    58db:	73 0d                	jae    58ea <_ZN4Mesh8read_plyERSi+0x49a>
    58dd:	48 8d 0c cf          	lea    (%rdi,%rcx,8),%rcx
    58e1:	48 39 ca             	cmp    %rcx,%rdx
    58e4:	74 04                	je     58ea <_ZN4Mesh8read_plyERSi+0x49a>
    58e6:	48 89 4d 40          	mov    %rcx,0x40(%rbp)
    58ea:	85 c0                	test   %eax,%eax
    58ec:	0f 8e 19 01 00 00    	jle    5a0b <_ZN4Mesh8read_plyERSi+0x5bb>
    58f2:	41 f6 c5 01          	test   $0x1,%r13b
    58f6:	75 65                	jne    595d <_ZN4Mesh8read_plyERSi+0x50d>
    58f8:	41 be 10 00 00 00    	mov    $0x10,%r14d
    58fe:	45 31 ed             	xor    %r13d,%r13d
    5901:	66 66 66 66 66 66 2e 	data16 data16 data16 data16 data16 cs nopw 0x0(%rax,%rax,1)
    5908:	0f 1f 84 00 00 00 00 
    590f:	00 
    5910:	49 8b 04 24          	mov    (%r12),%rax
    5914:	4a 8d 34 30          	lea    (%rax,%r14,1),%rsi
    5918:	48 83 c6 f0          	add    $0xfffffffffffffff0,%rsi
    591c:	48 89 df             	mov    %rbx,%rdi
    591f:	e8 dc c7 ff ff       	call   2100 <_ZNSi10_M_extractIdEERSiRT_@plt>
    5924:	49 8b 04 24          	mov    (%r12),%rax
    5928:	4a 8d 34 30          	lea    (%rax,%r14,1),%rsi
    592c:	48 83 c6 f8          	add    $0xfffffffffffffff8,%rsi
    5930:	48 89 df             	mov    %rbx,%rdi
    5933:	e8 c8 c7 ff ff       	call   2100 <_ZNSi10_M_extractIdEERSiRT_@plt>
    5938:	49 8b 34 24          	mov    (%r12),%rsi
    593c:	4c 01 f6             	add    %r14,%rsi
    593f:	48 89 df             	mov    %rbx,%rdi
    5942:	e8 b9 c7 ff ff       	call   2100 <_ZNSi10_M_extractIdEERSiRT_@plt>
    5947:	49 ff c5             	inc    %r13
    594a:	48 63 44 24 08       	movslq 0x8(%rsp),%rax
    594f:	49 83 c6 18          	add    $0x18,%r14
    5953:	49 39 c5             	cmp    %rax,%r13
    5956:	7c b8                	jl     5910 <_ZN4Mesh8read_plyERSi+0x4c0>
    5958:	e9 ae 00 00 00       	jmp    5a0b <_ZN4Mesh8read_plyERSi+0x5bb>
    595d:	41 bd 04 00 00 00    	mov    $0x4,%r13d
    5963:	bd 10 00 00 00       	mov    $0x10,%ebp
    5968:	45 31 f6             	xor    %r14d,%r14d
    596b:	4c 8b bc 24 b0 00 00 	mov    0xb0(%rsp),%r15
    5972:	00 
    5973:	66 66 66 66 2e 0f 1f 	data16 data16 data16 cs nopw 0x0(%rax,%rax,1)
    597a:	84 00 00 00 00 00 
    5980:	49 8b 04 24          	mov    (%r12),%rax
    5984:	48 8d 34 28          	lea    (%rax,%rbp,1),%rsi
    5988:	48 83 c6 f0          	add    $0xfffffffffffffff0,%rsi
    598c:	48 89 df             	mov    %rbx,%rdi
    598f:	e8 6c c7 ff ff       	call   2100 <_ZNSi10_M_extractIdEERSiRT_@plt>
    5994:	49 8b 04 24          	mov    (%r12),%rax
    5998:	48 8d 34 28          	lea    (%rax,%rbp,1),%rsi
    599c:	48 83 c6 f8          	add    $0xfffffffffffffff8,%rsi
    59a0:	48 89 df             	mov    %rbx,%rdi
    59a3:	e8 58 c7 ff ff       	call   2100 <_ZNSi10_M_extractIdEERSiRT_@plt>
    59a8:	49 8b 34 24          	mov    (%r12),%rsi
    59ac:	48 01 ee             	add    %rbp,%rsi
    59af:	48 89 df             	mov    %rbx,%rdi
    59b2:	e8 49 c7 ff ff       	call   2100 <_ZNSi10_M_extractIdEERSiRT_@plt>
    59b7:	49 8b 47 38          	mov    0x38(%r15),%rax
    59bb:	4a 8d 34 28          	lea    (%rax,%r13,1),%rsi
    59bf:	48 83 c6 fc          	add    $0xfffffffffffffffc,%rsi
    59c3:	48 89 df             	mov    %rbx,%rdi
    59c6:	e8 75 c9 ff ff       	call   2340 <_ZNSi10_M_extractIfEERSiRT_@plt>
    59cb:	49 8b 77 38          	mov    0x38(%r15),%rsi
    59cf:	4c 01 ee             	add    %r13,%rsi
    59d2:	48 89 df             	mov    %rbx,%rdi
    59d5:	e8 66 c9 ff ff       	call   2340 <_ZNSi10_M_extractIfEERSiRT_@plt>
    59da:	49 8b 47 38          	mov    0x38(%r15),%rax
    59de:	f3 0f 10 05 6a 56 00 	movss  0x566a(%rip),%xmm0        # b050 <_IO_stdin_used+0x50>
    59e5:	00 
    59e6:	f3 42 0f 5c 04 28    	subss  (%rax,%r13,1),%xmm0
    59ec:	f3 42 0f 11 04 28    	movss  %xmm0,(%rax,%r13,1)
    59f2:	49 ff c6             	inc    %r14
    59f5:	48 63 44 24 08       	movslq 0x8(%rsp),%rax
    59fa:	49 83 c5 08          	add    $0x8,%r13
    59fe:	48 83 c5 18          	add    $0x18,%rbp
    5a02:	49 39 c6             	cmp    %rax,%r14
    5a05:	0f 8c 75 ff ff ff    	jl     5980 <_ZN4Mesh8read_plyERSi+0x530>
    5a0b:	83 7c 24 0c 00       	cmpl   $0x0,0xc(%rsp)
    5a10:	4c 8b bc 24 d8 00 00 	mov    0xd8(%rsp),%r15
    5a17:	00 
    5a18:	7e 66                	jle    5a80 <_ZN4Mesh8read_plyERSi+0x630>
    5a1a:	41 bc 08 00 00 00    	mov    $0x8,%r12d
    5a20:	45 31 ed             	xor    %r13d,%r13d
    5a23:	4c 8d b4 24 e4 00 00 	lea    0xe4(%rsp),%r14
    5a2a:	00 
    5a2b:	0f 1f 44 00 00       	nopl   0x0(%rax,%rax,1)
    5a30:	48 89 df             	mov    %rbx,%rdi
    5a33:	4c 89 f6             	mov    %r14,%rsi
    5a36:	e8 b5 c6 ff ff       	call   20f0 <_ZNSirsERi@plt>
    5a3b:	49 8b 07             	mov    (%r15),%rax
    5a3e:	4a 8d 34 20          	lea    (%rax,%r12,1),%rsi
    5a42:	48 83 c6 f8          	add    $0xfffffffffffffff8,%rsi
    5a46:	48 89 df             	mov    %rbx,%rdi
    5a49:	e8 a2 c6 ff ff       	call   20f0 <_ZNSirsERi@plt>
    5a4e:	49 8b 07             	mov    (%r15),%rax
    5a51:	4a 8d 34 20          	lea    (%rax,%r12,1),%rsi
    5a55:	48 83 c6 fc          	add    $0xfffffffffffffffc,%rsi
    5a59:	48 89 df             	mov    %rbx,%rdi
    5a5c:	e8 8f c6 ff ff       	call   20f0 <_ZNSirsERi@plt>
    5a61:	49 8b 37             	mov    (%r15),%rsi
    5a64:	4c 01 e6             	add    %r12,%rsi
    5a67:	48 89 df             	mov    %rbx,%rdi
    5a6a:	e8 81 c6 ff ff       	call   20f0 <_ZNSirsERi@plt>
    5a6f:	49 ff c5             	inc    %r13
    5a72:	48 63 44 24 0c       	movslq 0xc(%rsp),%rax
    5a77:	49 83 c4 0c          	add    $0xc,%r12
    5a7b:	49 39 c5             	cmp    %rax,%r13
    5a7e:	7c b0                	jl     5a30 <_ZN4Mesh8read_plyERSi+0x5e0>
    5a80:	4c 8b 35 29 85 00 00 	mov    0x8529(%rip),%r14        # dfb0 <_ZTTNSt7__cxx1118basic_stringstreamIcSt11char_traitsIcESaIcEEE@GLIBCXX_3.4.21>
    5a87:	49 8b 1e             	mov    (%r14),%rbx
    5a8a:	49 8b 4e 40          	mov    0x40(%r14),%rcx
    5a8e:	48 89 9c 24 70 02 00 	mov    %rbx,0x270(%rsp)
    5a95:	00 
    5a96:	48 8b 43 e8          	mov    -0x18(%rbx),%rax
    5a9a:	48 89 8c 24 b0 00 00 	mov    %rcx,0xb0(%rsp)
    5aa1:	00 
    5aa2:	48 89 8c 04 70 02 00 	mov    %rcx,0x270(%rsp,%rax,1)
    5aa9:	00 
    5aaa:	4d 8b 7e 48          	mov    0x48(%r14),%r15
    5aae:	4c 89 bc 24 80 02 00 	mov    %r15,0x280(%rsp)
    5ab5:	00 
    5ab6:	4c 8b 25 33 85 00 00 	mov    0x8533(%rip),%r12        # dff0 <_ZTVNSt7__cxx1115basic_stringbufIcSt11char_traitsIcESaIcEEE@GLIBCXX_3.4.21>
    5abd:	49 83 c4 10          	add    $0x10,%r12
    5ac1:	4c 89 a4 24 88 02 00 	mov    %r12,0x288(%rsp)
    5ac8:	00 
    5ac9:	48 8b bc 24 d0 02 00 	mov    0x2d0(%rsp),%rdi
    5ad0:	00 
    5ad1:	48 8d 84 24 e0 02 00 	lea    0x2e0(%rsp),%rax
    5ad8:	00 
    5ad9:	48 39 c7             	cmp    %rax,%rdi
    5adc:	74 05                	je     5ae3 <_ZN4Mesh8read_plyERSi+0x693>
    5ade:	e8 9d c6 ff ff       	call   2180 <_ZdlPv@plt>
    5ae3:	4c 8b 2d d6 84 00 00 	mov    0x84d6(%rip),%r13        # dfc0 <_ZTVSt15basic_streambufIcSt11char_traitsIcEE@GLIBCXX_3.4>
    5aea:	49 83 c5 10          	add    $0x10,%r13
    5aee:	4c 89 ac 24 88 02 00 	mov    %r13,0x288(%rsp)
    5af5:	00 
    5af6:	48 8d bc 24 c0 02 00 	lea    0x2c0(%rsp),%rdi
    5afd:	00 
    5afe:	e8 4d c7 ff ff       	call   2250 <_ZNSt6localeD1Ev@plt>
    5b03:	49 8b 6e 10          	mov    0x10(%r14),%rbp
    5b07:	4d 8b 76 18          	mov    0x18(%r14),%r14
    5b0b:	48 89 ac 24 70 02 00 	mov    %rbp,0x270(%rsp)
    5b12:	00 
    5b13:	48 8b 45 e8          	mov    -0x18(%rbp),%rax
    5b17:	4c 89 b4 04 70 02 00 	mov    %r14,0x270(%rsp,%rax,1)
    5b1e:	00 
    5b1f:	48 c7 84 24 78 02 00 	movq   $0x0,0x278(%rsp)
    5b26:	00 00 00 00 00 
    5b2b:	48 8d bc 24 f0 02 00 	lea    0x2f0(%rsp),%rdi
    5b32:	00 
    5b33:	e8 68 c5 ff ff       	call   20a0 <_ZNSt8ios_baseD2Ev@plt>
    5b38:	48 89 9c 24 e8 00 00 	mov    %rbx,0xe8(%rsp)
    5b3f:	00 
    5b40:	48 8b 43 e8          	mov    -0x18(%rbx),%rax
    5b44:	48 8b 8c 24 b0 00 00 	mov    0xb0(%rsp),%rcx
    5b4b:	00 
    5b4c:	48 89 8c 04 e8 00 00 	mov    %rcx,0xe8(%rsp,%rax,1)
    5b53:	00 
    5b54:	4c 89 bc 24 f8 00 00 	mov    %r15,0xf8(%rsp)
    5b5b:	00 
    5b5c:	4c 89 a4 24 00 01 00 	mov    %r12,0x100(%rsp)
    5b63:	00 
    5b64:	48 8b bc 24 48 01 00 	mov    0x148(%rsp),%rdi
    5b6b:	00 
    5b6c:	48 8d 84 24 58 01 00 	lea    0x158(%rsp),%rax
    5b73:	00 
    5b74:	48 39 c7             	cmp    %rax,%rdi
    5b77:	74 05                	je     5b7e <_ZN4Mesh8read_plyERSi+0x72e>
    5b79:	e8 02 c6 ff ff       	call   2180 <_ZdlPv@plt>
    5b7e:	4c 89 ac 24 00 01 00 	mov    %r13,0x100(%rsp)
    5b85:	00 
    5b86:	48 8d bc 24 38 01 00 	lea    0x138(%rsp),%rdi
    5b8d:	00 
    5b8e:	e8 bd c6 ff ff       	call   2250 <_ZNSt6localeD1Ev@plt>
    5b93:	48 89 ac 24 e8 00 00 	mov    %rbp,0xe8(%rsp)
    5b9a:	00 
    5b9b:	48 8b 45 e8          	mov    -0x18(%rbp),%rax
    5b9f:	4c 89 b4 04 e8 00 00 	mov    %r14,0xe8(%rsp,%rax,1)
    5ba6:	00 
    5ba7:	48 c7 84 24 f0 00 00 	movq   $0x0,0xf0(%rsp)
    5bae:	00 00 00 00 00 
    5bb3:	48 8d bc 24 68 01 00 	lea    0x168(%rsp),%rdi
    5bba:	00 
    5bbb:	e8 e0 c4 ff ff       	call   20a0 <_ZNSt8ios_baseD2Ev@plt>
    5bc0:	48 8b 7c 24 50       	mov    0x50(%rsp),%rdi
    5bc5:	48 8d 44 24 60       	lea    0x60(%rsp),%rax
    5bca:	48 39 c7             	cmp    %rax,%rdi
    5bcd:	74 05                	je     5bd4 <_ZN4Mesh8read_plyERSi+0x784>
    5bcf:	e8 ac c5 ff ff       	call   2180 <_ZdlPv@plt>
    5bd4:	48 8b bc 24 b8 00 00 	mov    0xb8(%rsp),%rdi
    5bdb:	00 
    5bdc:	48 8d 84 24 c8 00 00 	lea    0xc8(%rsp),%rax
    5be3:	00 
    5be4:	48 39 c7             	cmp    %rax,%rdi
    5be7:	48 8d 5c 24 40       	lea    0x40(%rsp),%rbx
    5bec:	4c 8d b4 24 a0 00 00 	lea    0xa0(%rsp),%r14
    5bf3:	00 
    5bf4:	4c 8d bc 24 80 00 00 	lea    0x80(%rsp),%r15
    5bfb:	00 
    5bfc:	74 05                	je     5c03 <_ZN4Mesh8read_plyERSi+0x7b3>
    5bfe:	e8 7d c5 ff ff       	call   2180 <_ZdlPv@plt>
    5c03:	48 8b 7c 24 10       	mov    0x10(%rsp),%rdi
    5c08:	48 8d 44 24 20       	lea    0x20(%rsp),%rax
    5c0d:	48 39 c7             	cmp    %rax,%rdi
    5c10:	74 05                	je     5c17 <_ZN4Mesh8read_plyERSi+0x7c7>
    5c12:	e8 69 c5 ff ff       	call   2180 <_ZdlPv@plt>
    5c17:	48 8b 7c 24 70       	mov    0x70(%rsp),%rdi
    5c1c:	4c 39 ff             	cmp    %r15,%rdi
    5c1f:	74 05                	je     5c26 <_ZN4Mesh8read_plyERSi+0x7d6>
    5c21:	e8 5a c5 ff ff       	call   2180 <_ZdlPv@plt>
    5c26:	48 8b bc 24 90 00 00 	mov    0x90(%rsp),%rdi
    5c2d:	00 
    5c2e:	4c 39 f7             	cmp    %r14,%rdi
    5c31:	74 05                	je     5c38 <_ZN4Mesh8read_plyERSi+0x7e8>
    5c33:	e8 48 c5 ff ff       	call   2180 <_ZdlPv@plt>
    5c38:	48 8b 7c 24 30       	mov    0x30(%rsp),%rdi
    5c3d:	48 39 df             	cmp    %rbx,%rdi
    5c40:	74 05                	je     5c47 <_ZN4Mesh8read_plyERSi+0x7f7>
    5c42:	e8 39 c5 ff ff       	call   2180 <_ZdlPv@plt>
    5c47:	48 81 c4 f8 03 00 00 	add    $0x3f8,%rsp
    5c4e:	5b                   	pop    %rbx
    5c4f:	41 5c                	pop    %r12
    5c51:	41 5d                	pop    %r13
    5c53:	41 5e                	pop    %r14
    5c55:	41 5f                	pop    %r15
    5c57:	5d                   	pop    %rbp
    5c58:	c3                   	ret    
    5c59:	e8 b2 c5 ff ff       	call   2210 <_ZSt16__throw_bad_castv@plt>
    5c5e:	e8 ad c5 ff ff       	call   2210 <_ZSt16__throw_bad_castv@plt>
    5c63:	eb 44                	jmp    5ca9 <_ZN4Mesh8read_plyERSi+0x859>
    5c65:	eb 42                	jmp    5ca9 <_ZN4Mesh8read_plyERSi+0x859>
    5c67:	48 89 c3             	mov    %rax,%rbx
    5c6a:	4c 8d 7c 24 20       	lea    0x20(%rsp),%r15
    5c6f:	e9 b7 00 00 00       	jmp    5d2b <_ZN4Mesh8read_plyERSi+0x8db>
    5c74:	48 89 c3             	mov    %rax,%rbx
    5c77:	48 8b 7c 24 70       	mov    0x70(%rsp),%rdi
    5c7c:	48 39 ef             	cmp    %rbp,%rdi
    5c7f:	0f 84 d9 00 00 00    	je     5d5e <_ZN4Mesh8read_plyERSi+0x90e>
    5c85:	e9 2b 01 00 00       	jmp    5db5 <_ZN4Mesh8read_plyERSi+0x965>
    5c8a:	eb 63                	jmp    5cef <_ZN4Mesh8read_plyERSi+0x89f>
    5c8c:	48 89 c3             	mov    %rax,%rbx
    5c8f:	4c 8d 7c 24 20       	lea    0x20(%rsp),%r15
    5c94:	e9 85 00 00 00       	jmp    5d1e <_ZN4Mesh8read_plyERSi+0x8ce>
    5c99:	eb 54                	jmp    5cef <_ZN4Mesh8read_plyERSi+0x89f>
    5c9b:	eb 52                	jmp    5cef <_ZN4Mesh8read_plyERSi+0x89f>
    5c9d:	eb 50                	jmp    5cef <_ZN4Mesh8read_plyERSi+0x89f>
    5c9f:	eb 08                	jmp    5ca9 <_ZN4Mesh8read_plyERSi+0x859>
    5ca1:	eb 2a                	jmp    5ccd <_ZN4Mesh8read_plyERSi+0x87d>
    5ca3:	eb 4a                	jmp    5cef <_ZN4Mesh8read_plyERSi+0x89f>
    5ca5:	eb 48                	jmp    5cef <_ZN4Mesh8read_plyERSi+0x89f>
    5ca7:	eb 46                	jmp    5cef <_ZN4Mesh8read_plyERSi+0x89f>
    5ca9:	48 89 c3             	mov    %rax,%rbx
    5cac:	4c 8d 74 24 40       	lea    0x40(%rsp),%r14
    5cb1:	4c 8d ac 24 a0 00 00 	lea    0xa0(%rsp),%r13
    5cb8:	00 
    5cb9:	48 8d ac 24 80 00 00 	lea    0x80(%rsp),%rbp
    5cc0:	00 
    5cc1:	4c 8d 7c 24 20       	lea    0x20(%rsp),%r15
    5cc6:	4c 8d 64 24 60       	lea    0x60(%rsp),%r12
    5ccb:	eb 51                	jmp    5d1e <_ZN4Mesh8read_plyERSi+0x8ce>
    5ccd:	48 89 c3             	mov    %rax,%rbx
    5cd0:	4c 8d 7c 24 20       	lea    0x20(%rsp),%r15
    5cd5:	48 8b bc 24 b8 00 00 	mov    0xb8(%rsp),%rdi
    5cdc:	00 
    5cdd:	48 8d 84 24 c8 00 00 	lea    0xc8(%rsp),%rax
    5ce4:	00 
    5ce5:	48 39 c7             	cmp    %rax,%rdi
    5ce8:	74 60                	je     5d4a <_ZN4Mesh8read_plyERSi+0x8fa>
    5cea:	e9 a8 00 00 00       	jmp    5d97 <_ZN4Mesh8read_plyERSi+0x947>
    5cef:	48 89 c3             	mov    %rax,%rbx
    5cf2:	4c 8d 74 24 40       	lea    0x40(%rsp),%r14
    5cf7:	4c 8d ac 24 a0 00 00 	lea    0xa0(%rsp),%r13
    5cfe:	00 
    5cff:	48 8d ac 24 80 00 00 	lea    0x80(%rsp),%rbp
    5d06:	00 
    5d07:	4c 8d 7c 24 20       	lea    0x20(%rsp),%r15
    5d0c:	4c 8d 64 24 60       	lea    0x60(%rsp),%r12
    5d11:	48 8d bc 24 70 02 00 	lea    0x270(%rsp),%rdi
    5d18:	00 
    5d19:	e8 12 c4 ff ff       	call   2130 <_ZNSt7__cxx1118basic_stringstreamIcSt11char_traitsIcESaIcEED1Ev@plt>
    5d1e:	48 8d bc 24 e8 00 00 	lea    0xe8(%rsp),%rdi
    5d25:	00 
    5d26:	e8 05 c4 ff ff       	call   2130 <_ZNSt7__cxx1118basic_stringstreamIcSt11char_traitsIcESaIcEED1Ev@plt>
    5d2b:	48 8b 7c 24 50       	mov    0x50(%rsp),%rdi
    5d30:	4c 39 e7             	cmp    %r12,%rdi
    5d33:	75 48                	jne    5d7d <_ZN4Mesh8read_plyERSi+0x92d>
    5d35:	48 8b bc 24 b8 00 00 	mov    0xb8(%rsp),%rdi
    5d3c:	00 
    5d3d:	48 8d 84 24 c8 00 00 	lea    0xc8(%rsp),%rax
    5d44:	00 
    5d45:	48 39 c7             	cmp    %rax,%rdi
    5d48:	75 4d                	jne    5d97 <_ZN4Mesh8read_plyERSi+0x947>
    5d4a:	48 8b 7c 24 10       	mov    0x10(%rsp),%rdi
    5d4f:	4c 39 ff             	cmp    %r15,%rdi
    5d52:	75 52                	jne    5da6 <_ZN4Mesh8read_plyERSi+0x956>
    5d54:	48 8b 7c 24 70       	mov    0x70(%rsp),%rdi
    5d59:	48 39 ef             	cmp    %rbp,%rdi
    5d5c:	75 57                	jne    5db5 <_ZN4Mesh8read_plyERSi+0x965>
    5d5e:	48 8b bc 24 90 00 00 	mov    0x90(%rsp),%rdi
    5d65:	00 
    5d66:	4c 39 ef             	cmp    %r13,%rdi
    5d69:	75 5c                	jne    5dc7 <_ZN4Mesh8read_plyERSi+0x977>
    5d6b:	48 8b 7c 24 30       	mov    0x30(%rsp),%rdi
    5d70:	4c 39 f7             	cmp    %r14,%rdi
    5d73:	75 61                	jne    5dd6 <_ZN4Mesh8read_plyERSi+0x986>
    5d75:	48 89 df             	mov    %rbx,%rdi
    5d78:	e8 93 c5 ff ff       	call   2310 <_Unwind_Resume@plt>
    5d7d:	e8 fe c3 ff ff       	call   2180 <_ZdlPv@plt>
    5d82:	48 8b bc 24 b8 00 00 	mov    0xb8(%rsp),%rdi
    5d89:	00 
    5d8a:	48 8d 84 24 c8 00 00 	lea    0xc8(%rsp),%rax
    5d91:	00 
    5d92:	48 39 c7             	cmp    %rax,%rdi
    5d95:	74 b3                	je     5d4a <_ZN4Mesh8read_plyERSi+0x8fa>
    5d97:	e8 e4 c3 ff ff       	call   2180 <_ZdlPv@plt>
    5d9c:	48 8b 7c 24 10       	mov    0x10(%rsp),%rdi
    5da1:	4c 39 ff             	cmp    %r15,%rdi
    5da4:	74 ae                	je     5d54 <_ZN4Mesh8read_plyERSi+0x904>
    5da6:	e8 d5 c3 ff ff       	call   2180 <_ZdlPv@plt>
    5dab:	48 8b 7c 24 70       	mov    0x70(%rsp),%rdi
    5db0:	48 39 ef             	cmp    %rbp,%rdi
    5db3:	74 a9                	je     5d5e <_ZN4Mesh8read_plyERSi+0x90e>
    5db5:	e8 c6 c3 ff ff       	call   2180 <_ZdlPv@plt>
    5dba:	48 8b bc 24 90 00 00 	mov    0x90(%rsp),%rdi
    5dc1:	00 
    5dc2:	4c 39 ef             	cmp    %r13,%rdi
    5dc5:	74 a4                	je     5d6b <_ZN4Mesh8read_plyERSi+0x91b>
    5dc7:	e8 b4 c3 ff ff       	call   2180 <_ZdlPv@plt>
    5dcc:	48 8b 7c 24 30       	mov    0x30(%rsp),%rdi
    5dd1:	4c 39 f7             	cmp    %r14,%rdi
    5dd4:	74 9f                	je     5d75 <_ZN4Mesh8read_plyERSi+0x925>
    5dd6:	e8 a5 c3 ff ff       	call   2180 <_ZdlPv@plt>
    5ddb:	48 89 df             	mov    %rbx,%rdi
    5dde:	e8 2d c5 ff ff       	call   2310 <_Unwind_Resume@plt>
    5de3:	66 66 66 66 2e 0f 1f 	data16 data16 data16 cs nopw 0x0(%rax,%rax,1)
    5dea:	84 00 00 00 00 00 

0000000000005df0 <_ZN4Mesh8save_objEPKc>:
    5df0:	41 56                	push   %r14
    5df2:	53                   	push   %rbx
    5df3:	48 81 ec 08 02 00 00 	sub    $0x208,%rsp
    5dfa:	48 89 f3             	mov    %rsi,%rbx
    5dfd:	49 89 fe             	mov    %rdi,%r14
    5e00:	48 8d 7c 24 08       	lea    0x8(%rsp),%rdi
    5e05:	ba 10 00 00 00       	mov    $0x10,%edx
    5e0a:	e8 b1 c3 ff ff       	call   21c0 <_ZNSt14basic_ofstreamIcSt11char_traitsIcEEC1EPKcSt13_Ios_Openmode@plt>
    5e0f:	48 8b 44 24 08       	mov    0x8(%rsp),%rax
    5e14:	48 8b 40 e8          	mov    -0x18(%rax),%rax
    5e18:	83 7c 04 28 00       	cmpl   $0x0,0x28(%rsp,%rax,1)
    5e1d:	74 3c                	je     5e5b <_ZN4Mesh8save_objEPKc+0x6b>
    5e1f:	4c 8b 35 aa 81 00 00 	mov    0x81aa(%rip),%r14        # dfd0 <_ZSt4cout@GLIBCXX_3.4>
    5e26:	48 8d 35 b6 52 00 00 	lea    0x52b6(%rip),%rsi        # b0e3 <_IO_stdin_used+0xe3>
    5e2d:	ba 17 00 00 00       	mov    $0x17,%edx
    5e32:	4c 89 f7             	mov    %r14,%rdi
    5e35:	e8 a6 c3 ff ff       	call   21e0 <_ZSt16__ostream_insertIcSt11char_traitsIcEERSt13basic_ostreamIT_T0_ES6_PKS3_l@plt>
    5e3a:	48 85 db             	test   %rbx,%rbx
    5e3d:	74 59                	je     5e98 <_ZN4Mesh8save_objEPKc+0xa8>
    5e3f:	48 89 df             	mov    %rbx,%rdi
    5e42:	e8 79 c2 ff ff       	call   20c0 <strlen@plt>
    5e47:	48 8b 3d 82 81 00 00 	mov    0x8182(%rip),%rdi        # dfd0 <_ZSt4cout@GLIBCXX_3.4>
    5e4e:	48 89 de             	mov    %rbx,%rsi
    5e51:	48 89 c2             	mov    %rax,%rdx
    5e54:	e8 87 c3 ff ff       	call   21e0 <_ZSt16__ostream_insertIcSt11char_traitsIcEERSt13basic_ostreamIT_T0_ES6_PKS3_l@plt>
    5e59:	eb 55                	jmp    5eb0 <_ZN4Mesh8save_objEPKc+0xc0>
    5e5b:	48 8d 74 24 08       	lea    0x8(%rsp),%rsi
    5e60:	4c 89 f7             	mov    %r14,%rdi
    5e63:	31 d2                	xor    %edx,%edx
    5e65:	e8 56 d9 ff ff       	call   37c0 <_ZN4Mesh4saveERSoPSt6vectorIN7CompFab10Vec3StructESaIS3_EE>
    5e6a:	48 8d 7c 24 10       	lea    0x10(%rsp),%rdi
    5e6f:	e8 dc c1 ff ff       	call   2050 <_ZNSt13basic_filebufIcSt11char_traitsIcEE5closeEv@plt>
    5e74:	48 85 c0             	test   %rax,%rax
    5e77:	75 4f                	jne    5ec8 <_ZN4Mesh8save_objEPKc+0xd8>
    5e79:	48 8b 44 24 08       	mov    0x8(%rsp),%rax
    5e7e:	48 8b 40 e8          	mov    -0x18(%rax),%rax
    5e82:	48 8d 3c 04          	lea    (%rsp,%rax,1),%rdi
    5e86:	48 83 c7 08          	add    $0x8,%rdi
    5e8a:	8b 74 04 28          	mov    0x28(%rsp,%rax,1),%esi
    5e8e:	83 ce 04             	or     $0x4,%esi
    5e91:	e8 3a c4 ff ff       	call   22d0 <_ZNSt9basic_iosIcSt11char_traitsIcEE5clearESt12_Ios_Iostate@plt>
    5e96:	eb 30                	jmp    5ec8 <_ZN4Mesh8save_objEPKc+0xd8>
    5e98:	49 8b 06             	mov    (%r14),%rax
    5e9b:	48 8b 40 e8          	mov    -0x18(%rax),%rax
    5e9f:	49 8d 3c 06          	lea    (%r14,%rax,1),%rdi
    5ea3:	41 8b 74 06 20       	mov    0x20(%r14,%rax,1),%esi
    5ea8:	83 ce 01             	or     $0x1,%esi
    5eab:	e8 20 c4 ff ff       	call   22d0 <_ZNSt9basic_iosIcSt11char_traitsIcEE5clearESt12_Ios_Iostate@plt>
    5eb0:	48 8b 3d 19 81 00 00 	mov    0x8119(%rip),%rdi        # dfd0 <_ZSt4cout@GLIBCXX_3.4>
    5eb7:	48 8d 35 73 54 00 00 	lea    0x5473(%rip),%rsi        # b331 <_ZTS4Mesh+0x193>
    5ebe:	ba 01 00 00 00       	mov    $0x1,%edx
    5ec3:	e8 18 c3 ff ff       	call   21e0 <_ZSt16__ostream_insertIcSt11char_traitsIcEERSt13basic_ostreamIT_T0_ES6_PKS3_l@plt>
    5ec8:	48 8d 7c 24 08       	lea    0x8(%rsp),%rdi
    5ecd:	e8 9e c3 ff ff       	call   2270 <_ZNSt14basic_ofstreamIcSt11char_traitsIcEED1Ev@plt>
    5ed2:	48 81 c4 08 02 00 00 	add    $0x208,%rsp
    5ed9:	5b                   	pop    %rbx
    5eda:	41 5e                	pop    %r14
    5edc:	c3                   	ret    
    5edd:	48 89 c3             	mov    %rax,%rbx
    5ee0:	48 8d 7c 24 08       	lea    0x8(%rsp),%rdi
    5ee5:	e8 86 c3 ff ff       	call   2270 <_ZNSt14basic_ofstreamIcSt11char_traitsIcEED1Ev@plt>
    5eea:	48 89 df             	mov    %rbx,%rdi
    5eed:	e8 1e c4 ff ff       	call   2310 <_Unwind_Resume@plt>
    5ef2:	66 66 66 66 66 2e 0f 	data16 data16 data16 data16 cs nopw 0x0(%rax,%rax,1)
    5ef9:	1f 84 00 00 00 00 00 

0000000000005f00 <_ZN4Mesh6updateEv>:
    5f00:	c3                   	ret    
    5f01:	66 66 66 66 66 66 2e 	data16 data16 data16 data16 data16 cs nopw 0x0(%rax,%rax,1)
    5f08:	0f 1f 84 00 00 00 00 
    5f0f:	00 

0000000000005f10 <_ZN4MeshC1EPKcb>:
    5f10:	41 57                	push   %r15
    5f12:	41 56                	push   %r14
    5f14:	53                   	push   %rbx
    5f15:	48 89 fb             	mov    %rdi,%rbx
    5f18:	48 8d 05 69 7e 00 00 	lea    0x7e69(%rip),%rax        # dd88 <_ZTV4Mesh+0x10>
    5f1f:	48 89 07             	mov    %rax,(%rdi)
    5f22:	4c 8d 7f 08          	lea    0x8(%rdi),%r15
    5f26:	0f 57 c0             	xorps  %xmm0,%xmm0
    5f29:	0f 11 47 08          	movups %xmm0,0x8(%rdi)
    5f2d:	0f 11 47 18          	movups %xmm0,0x18(%rdi)
    5f31:	0f 11 47 28          	movups %xmm0,0x28(%rdi)
    5f35:	0f 11 47 38          	movups %xmm0,0x38(%rdi)
    5f39:	0f 11 47 48          	movups %xmm0,0x48(%rdi)
    5f3d:	0f 11 47 58          	movups %xmm0,0x58(%rdi)
    5f41:	0f 11 47 68          	movups %xmm0,0x68(%rdi)
    5f45:	48 c7 47 78 00 00 00 	movq   $0x0,0x78(%rdi)
    5f4c:	00 
    5f4d:	e8 8e 00 00 00       	call   5fe0 <_ZN4Mesh9load_meshEPKcb>
    5f52:	5b                   	pop    %rbx
    5f53:	41 5e                	pop    %r14
    5f55:	41 5f                	pop    %r15
    5f57:	c3                   	ret    
    5f58:	49 89 c6             	mov    %rax,%r14
    5f5b:	48 8b 7b 68          	mov    0x68(%rbx),%rdi
    5f5f:	48 85 ff             	test   %rdi,%rdi
    5f62:	75 2b                	jne    5f8f <_ZN4MeshC1EPKcb+0x7f>
    5f64:	48 8b 7b 50          	mov    0x50(%rbx),%rdi
    5f68:	48 85 ff             	test   %rdi,%rdi
    5f6b:	75 30                	jne    5f9d <_ZN4MeshC1EPKcb+0x8d>
    5f6d:	48 8b 7b 38          	mov    0x38(%rbx),%rdi
    5f71:	48 85 ff             	test   %rdi,%rdi
    5f74:	75 35                	jne    5fab <_ZN4MeshC1EPKcb+0x9b>
    5f76:	48 8b 7b 20          	mov    0x20(%rbx),%rdi
    5f7a:	48 85 ff             	test   %rdi,%rdi
    5f7d:	75 3a                	jne    5fb9 <_ZN4MeshC1EPKcb+0xa9>
    5f7f:	49 8b 3f             	mov    (%r15),%rdi
    5f82:	48 85 ff             	test   %rdi,%rdi
    5f85:	75 3f                	jne    5fc6 <_ZN4MeshC1EPKcb+0xb6>
    5f87:	4c 89 f7             	mov    %r14,%rdi
    5f8a:	e8 81 c3 ff ff       	call   2310 <_Unwind_Resume@plt>
    5f8f:	e8 ec c1 ff ff       	call   2180 <_ZdlPv@plt>
    5f94:	48 8b 7b 50          	mov    0x50(%rbx),%rdi
    5f98:	48 85 ff             	test   %rdi,%rdi
    5f9b:	74 d0                	je     5f6d <_ZN4MeshC1EPKcb+0x5d>
    5f9d:	e8 de c1 ff ff       	call   2180 <_ZdlPv@plt>
    5fa2:	48 8b 7b 38          	mov    0x38(%rbx),%rdi
    5fa6:	48 85 ff             	test   %rdi,%rdi
    5fa9:	74 cb                	je     5f76 <_ZN4MeshC1EPKcb+0x66>
    5fab:	e8 d0 c1 ff ff       	call   2180 <_ZdlPv@plt>
    5fb0:	48 8b 7b 20          	mov    0x20(%rbx),%rdi
    5fb4:	48 85 ff             	test   %rdi,%rdi
    5fb7:	74 c6                	je     5f7f <_ZN4MeshC1EPKcb+0x6f>
    5fb9:	e8 c2 c1 ff ff       	call   2180 <_ZdlPv@plt>
    5fbe:	49 8b 3f             	mov    (%r15),%rdi
    5fc1:	48 85 ff             	test   %rdi,%rdi
    5fc4:	74 c1                	je     5f87 <_ZN4MeshC1EPKcb+0x77>
    5fc6:	e8 b5 c1 ff ff       	call   2180 <_ZdlPv@plt>
    5fcb:	4c 89 f7             	mov    %r14,%rdi
    5fce:	e8 3d c3 ff ff       	call   2310 <_Unwind_Resume@plt>
    5fd3:	66 66 66 66 2e 0f 1f 	data16 data16 data16 cs nopw 0x0(%rax,%rax,1)
    5fda:	84 00 00 00 00 00 

0000000000005fe0 <_ZN4Mesh9load_meshEPKcb>:
    5fe0:	55                   	push   %rbp
    5fe1:	41 57                	push   %r15
    5fe3:	41 56                	push   %r14
    5fe5:	41 54                	push   %r12
    5fe7:	53                   	push   %rbx
    5fe8:	48 81 ec 10 02 00 00 	sub    $0x210,%rsp
    5fef:	89 d5                	mov    %edx,%ebp
    5ff1:	49 89 f7             	mov    %rsi,%r15
    5ff4:	49 89 fe             	mov    %rdi,%r14
    5ff7:	4c 8d 64 24 08       	lea    0x8(%rsp),%r12
    5ffc:	4c 89 e7             	mov    %r12,%rdi
    5fff:	e8 cc c1 ff ff       	call   21d0 <_ZNSt14basic_ifstreamIcSt11char_traitsIcEEC1Ev@plt>
    6004:	48 8d 5c 24 18       	lea    0x18(%rsp),%rbx
    6009:	48 89 df             	mov    %rbx,%rdi
    600c:	4c 89 fe             	mov    %r15,%rsi
    600f:	ba 08 00 00 00       	mov    $0x8,%edx
    6014:	e8 57 c1 ff ff       	call   2170 <_ZNSt13basic_filebufIcSt11char_traitsIcEE4openEPKcSt13_Ios_Openmode@plt>
    6019:	48 8b 4c 24 08       	mov    0x8(%rsp),%rcx
    601e:	4c 03 61 e8          	add    -0x18(%rcx),%r12
    6022:	31 f6                	xor    %esi,%esi
    6024:	48 85 c0             	test   %rax,%rax
    6027:	75 08                	jne    6031 <_ZN4Mesh9load_meshEPKcb+0x51>
    6029:	41 8b 74 24 20       	mov    0x20(%r12),%esi
    602e:	83 ce 04             	or     $0x4,%esi
    6031:	4c 89 e7             	mov    %r12,%rdi
    6034:	e8 97 c2 ff ff       	call   22d0 <_ZNSt9basic_iosIcSt11char_traitsIcEE5clearESt12_Ios_Iostate@plt>
    6039:	48 8b 44 24 08       	mov    0x8(%rsp),%rax
    603e:	48 8b 40 e8          	mov    -0x18(%rax),%rax
    6042:	83 7c 04 28 00       	cmpl   $0x0,0x28(%rsp,%rax,1)
    6047:	74 3c                	je     6085 <_ZN4Mesh9load_meshEPKcb+0xa5>
    6049:	48 8b 1d 80 7f 00 00 	mov    0x7f80(%rip),%rbx        # dfd0 <_ZSt4cout@GLIBCXX_3.4>
    6050:	48 8d 35 a4 50 00 00 	lea    0x50a4(%rip),%rsi        # b0fb <_IO_stdin_used+0xfb>
    6057:	ba 18 00 00 00       	mov    $0x18,%edx
    605c:	48 89 df             	mov    %rbx,%rdi
    605f:	e8 7c c1 ff ff       	call   21e0 <_ZSt16__ostream_insertIcSt11char_traitsIcEERSt13basic_ostreamIT_T0_ES6_PKS3_l@plt>
    6064:	4d 85 ff             	test   %r15,%r15
    6067:	74 43                	je     60ac <_ZN4Mesh9load_meshEPKcb+0xcc>
    6069:	4c 89 ff             	mov    %r15,%rdi
    606c:	e8 4f c0 ff ff       	call   20c0 <strlen@plt>
    6071:	48 8b 3d 58 7f 00 00 	mov    0x7f58(%rip),%rdi        # dfd0 <_ZSt4cout@GLIBCXX_3.4>
    6078:	4c 89 fe             	mov    %r15,%rsi
    607b:	48 89 c2             	mov    %rax,%rdx
    607e:	e8 5d c1 ff ff       	call   21e0 <_ZSt16__ostream_insertIcSt11char_traitsIcEERSt13basic_ostreamIT_T0_ES6_PKS3_l@plt>
    6083:	eb 3e                	jmp    60c3 <_ZN4Mesh9load_meshEPKcb+0xe3>
    6085:	4c 89 ff             	mov    %r15,%rdi
    6088:	e8 33 c0 ff ff       	call   20c0 <strlen@plt>
    608d:	42 0f be 44 38 ff    	movsbl -0x1(%rax,%r15,1),%eax
    6093:	83 f8 6a             	cmp    $0x6a,%eax
    6096:	74 45                	je     60dd <_ZN4Mesh9load_meshEPKcb+0xfd>
    6098:	83 f8 79             	cmp    $0x79,%eax
    609b:	75 4d                	jne    60ea <_ZN4Mesh9load_meshEPKcb+0x10a>
    609d:	48 8d 74 24 08       	lea    0x8(%rsp),%rsi
    60a2:	4c 89 f7             	mov    %r14,%rdi
    60a5:	e8 a6 f3 ff ff       	call   5450 <_ZN4Mesh8read_plyERSi>
    60aa:	eb 3e                	jmp    60ea <_ZN4Mesh9load_meshEPKcb+0x10a>
    60ac:	48 8b 03             	mov    (%rbx),%rax
    60af:	48 8b 40 e8          	mov    -0x18(%rax),%rax
    60b3:	48 8d 3c 03          	lea    (%rbx,%rax,1),%rdi
    60b7:	8b 74 03 20          	mov    0x20(%rbx,%rax,1),%esi
    60bb:	83 ce 01             	or     $0x1,%esi
    60be:	e8 0d c2 ff ff       	call   22d0 <_ZNSt9basic_iosIcSt11char_traitsIcEE5clearESt12_Ios_Iostate@plt>
    60c3:	48 8b 3d 06 7f 00 00 	mov    0x7f06(%rip),%rdi        # dfd0 <_ZSt4cout@GLIBCXX_3.4>
    60ca:	48 8d 35 60 52 00 00 	lea    0x5260(%rip),%rsi        # b331 <_ZTS4Mesh+0x193>
    60d1:	ba 01 00 00 00       	mov    $0x1,%edx
    60d6:	e8 05 c1 ff ff       	call   21e0 <_ZSt16__ostream_insertIcSt11char_traitsIcEERSt13basic_ostreamIT_T0_ES6_PKS3_l@plt>
    60db:	eb 4c                	jmp    6129 <_ZN4Mesh9load_meshEPKcb+0x149>
    60dd:	48 8d 74 24 08       	lea    0x8(%rsp),%rsi
    60e2:	4c 89 f7             	mov    %r14,%rdi
    60e5:	e8 46 dd ff ff       	call   3e30 <_ZN4Mesh8read_objERSi>
    60ea:	40 84 ed             	test   %bpl,%bpl
    60ed:	74 08                	je     60f7 <_ZN4Mesh9load_meshEPKcb+0x117>
    60ef:	4c 89 f7             	mov    %r14,%rdi
    60f2:	e8 69 00 00 00       	call   6160 <_ZN4Mesh7rescaleEv>
    60f7:	4c 89 f7             	mov    %r14,%rdi
    60fa:	e8 c1 cf ff ff       	call   30c0 <_ZN4Mesh12compute_normEv>
    60ff:	48 89 df             	mov    %rbx,%rdi
    6102:	e8 49 bf ff ff       	call   2050 <_ZNSt13basic_filebufIcSt11char_traitsIcEE5closeEv@plt>
    6107:	48 85 c0             	test   %rax,%rax
    610a:	75 1d                	jne    6129 <_ZN4Mesh9load_meshEPKcb+0x149>
    610c:	48 8b 44 24 08       	mov    0x8(%rsp),%rax
    6111:	48 8b 40 e8          	mov    -0x18(%rax),%rax
    6115:	48 8d 3c 04          	lea    (%rsp,%rax,1),%rdi
    6119:	48 83 c7 08          	add    $0x8,%rdi
    611d:	8b 74 04 28          	mov    0x28(%rsp,%rax,1),%esi
    6121:	83 ce 04             	or     $0x4,%esi
    6124:	e8 a7 c1 ff ff       	call   22d0 <_ZNSt9basic_iosIcSt11char_traitsIcEE5clearESt12_Ios_Iostate@plt>
    6129:	48 8d 7c 24 08       	lea    0x8(%rsp),%rdi
    612e:	e8 2d bf ff ff       	call   2060 <_ZNSt14basic_ifstreamIcSt11char_traitsIcEED1Ev@plt>
    6133:	48 81 c4 10 02 00 00 	add    $0x210,%rsp
    613a:	5b                   	pop    %rbx
    613b:	41 5c                	pop    %r12
    613d:	41 5e                	pop    %r14
    613f:	41 5f                	pop    %r15
    6141:	5d                   	pop    %rbp
    6142:	c3                   	ret    
    6143:	48 89 c3             	mov    %rax,%rbx
    6146:	48 8d 7c 24 08       	lea    0x8(%rsp),%rdi
    614b:	e8 10 bf ff ff       	call   2060 <_ZNSt14basic_ifstreamIcSt11char_traitsIcEED1Ev@plt>
    6150:	48 89 df             	mov    %rbx,%rdi
    6153:	e8 b8 c1 ff ff       	call   2310 <_Unwind_Resume@plt>
    6158:	0f 1f 84 00 00 00 00 	nopl   0x0(%rax,%rax,1)
    615f:	00 

0000000000006160 <_ZN4Mesh7rescaleEv>:
    6160:	48 8b 77 08          	mov    0x8(%rdi),%rsi
    6164:	48 8b 7f 10          	mov    0x10(%rdi),%rdi
    6168:	48 89 f8             	mov    %rdi,%rax
    616b:	48 29 f0             	sub    %rsi,%rax
    616e:	48 b9 ab aa aa aa aa 	movabs $0x2aaaaaaaaaaaaaab,%rcx
    6175:	aa aa 2a 
    6178:	48 f7 e9             	imul   %rcx
    617b:	48 39 f7             	cmp    %rsi,%rdi
    617e:	0f 84 93 00 00 00    	je     6217 <_ZN4Mesh7rescaleEv+0xb7>
    6184:	48 89 d1             	mov    %rdx,%rcx
    6187:	48 89 d0             	mov    %rdx,%rax
    618a:	48 c1 e8 3f          	shr    $0x3f,%rax
    618e:	48 c1 f9 02          	sar    $0x2,%rcx
    6192:	48 01 c1             	add    %rax,%rcx
    6195:	f2 0f 10 06          	movsd  (%rsi),%xmm0
    6199:	48 83 f9 01          	cmp    $0x1,%rcx
    619d:	48 83 d1 00          	adc    $0x0,%rcx
    61a1:	48 89 c8             	mov    %rcx,%rax
    61a4:	48 ff c8             	dec    %rax
    61a7:	0f 84 e4 04 00 00    	je     6691 <_ZN4Mesh7rescaleEv+0x531>
    61ad:	48 89 cf             	mov    %rcx,%rdi
    61b0:	48 83 e7 fe          	and    $0xfffffffffffffffe,%rdi
    61b4:	31 d2                	xor    %edx,%edx
    61b6:	49 89 f0             	mov    %rsi,%r8
    61b9:	66 0f 28 c8          	movapd %xmm0,%xmm1
    61bd:	0f 1f 00             	nopl   (%rax)
    61c0:	f2 41 0f 10 10       	movsd  (%r8),%xmm2
    61c5:	f2 41 0f 10 58 18    	movsd  0x18(%r8),%xmm3
    61cb:	f2 0f 5d ca          	minsd  %xmm2,%xmm1
    61cf:	f2 0f 5f c2          	maxsd  %xmm2,%xmm0
    61d3:	f2 0f 5d cb          	minsd  %xmm3,%xmm1
    61d7:	f2 0f 5f c3          	maxsd  %xmm3,%xmm0
    61db:	48 83 c2 02          	add    $0x2,%rdx
    61df:	49 83 c0 30          	add    $0x30,%r8
    61e3:	48 39 d7             	cmp    %rdx,%rdi
    61e6:	75 d8                	jne    61c0 <_ZN4Mesh7rescaleEv+0x60>
    61e8:	f6 c1 01             	test   $0x1,%cl
    61eb:	74 11                	je     61fe <_ZN4Mesh7rescaleEv+0x9e>
    61ed:	48 8d 14 52          	lea    (%rdx,%rdx,2),%rdx
    61f1:	f2 0f 10 14 d6       	movsd  (%rsi,%rdx,8),%xmm2
    61f6:	f2 0f 5d ca          	minsd  %xmm2,%xmm1
    61fa:	f2 0f 5f c2          	maxsd  %xmm2,%xmm0
    61fe:	f2 0f 10 5e 08       	movsd  0x8(%rsi),%xmm3
    6203:	f2 0f 10 56 10       	movsd  0x10(%rsi),%xmm2
    6208:	89 ca                	mov    %ecx,%edx
    620a:	83 e2 03             	and    $0x3,%edx
    620d:	48 83 f9 04          	cmp    $0x4,%rcx
    6211:	73 1c                	jae    622f <_ZN4Mesh7rescaleEv+0xcf>
    6213:	31 ff                	xor    %edi,%edi
    6215:	eb 74                	jmp    628b <_ZN4Mesh7rescaleEv+0x12b>
    6217:	48 8b 3d b2 7d 00 00 	mov    0x7db2(%rip),%rdi        # dfd0 <_ZSt4cout@GLIBCXX_3.4>
    621e:	48 8d 35 ef 4e 00 00 	lea    0x4eef(%rip),%rsi        # b114 <_IO_stdin_used+0x114>
    6225:	ba 0b 00 00 00       	mov    $0xb,%edx
    622a:	e9 b1 bf ff ff       	jmp    21e0 <_ZSt16__ostream_insertIcSt11char_traitsIcEERSt13basic_ostreamIT_T0_ES6_PKS3_l@plt>
    622f:	49 89 c8             	mov    %rcx,%r8
    6232:	49 83 e0 fc          	and    $0xfffffffffffffffc,%r8
    6236:	31 ff                	xor    %edi,%edi
    6238:	49 89 f1             	mov    %rsi,%r9
    623b:	0f 1f 44 00 00       	nopl   0x0(%rax,%rax,1)
    6240:	f2 41 0f 10 21       	movsd  (%r9),%xmm4
    6245:	f2 41 0f 10 69 18    	movsd  0x18(%r9),%xmm5
    624b:	f2 0f 5c e1          	subsd  %xmm1,%xmm4
    624f:	f2 41 0f 11 21       	movsd  %xmm4,(%r9)
    6254:	f2 0f 5c e9          	subsd  %xmm1,%xmm5
    6258:	f2 41 0f 11 69 18    	movsd  %xmm5,0x18(%r9)
    625e:	f2 41 0f 10 61 30    	movsd  0x30(%r9),%xmm4
    6264:	f2 0f 5c e1          	subsd  %xmm1,%xmm4
    6268:	f2 41 0f 11 61 30    	movsd  %xmm4,0x30(%r9)
    626e:	f2 41 0f 10 61 48    	movsd  0x48(%r9),%xmm4
    6274:	f2 0f 5c e1          	subsd  %xmm1,%xmm4
    6278:	f2 41 0f 11 61 48    	movsd  %xmm4,0x48(%r9)
    627e:	48 83 c7 04          	add    $0x4,%rdi
    6282:	49 83 c1 60          	add    $0x60,%r9
    6286:	49 39 f8             	cmp    %rdi,%r8
    6289:	75 b5                	jne    6240 <_ZN4Mesh7rescaleEv+0xe0>
    628b:	48 85 d2             	test   %rdx,%rdx
    628e:	74 39                	je     62c9 <_ZN4Mesh7rescaleEv+0x169>
    6290:	48 8d 3c 7f          	lea    (%rdi,%rdi,2),%rdi
    6294:	48 8d 3c fe          	lea    (%rsi,%rdi,8),%rdi
    6298:	48 c1 e2 03          	shl    $0x3,%rdx
    629c:	48 8d 14 52          	lea    (%rdx,%rdx,2),%rdx
    62a0:	45 31 c0             	xor    %r8d,%r8d
    62a3:	66 66 66 66 2e 0f 1f 	data16 data16 data16 cs nopw 0x0(%rax,%rax,1)
    62aa:	84 00 00 00 00 00 
    62b0:	f2 42 0f 10 24 07    	movsd  (%rdi,%r8,1),%xmm4
    62b6:	f2 0f 5c e1          	subsd  %xmm1,%xmm4
    62ba:	f2 42 0f 11 24 07    	movsd  %xmm4,(%rdi,%r8,1)
    62c0:	49 83 c0 18          	add    $0x18,%r8
    62c4:	4c 39 c2             	cmp    %r8,%rdx
    62c7:	75 e7                	jne    62b0 <_ZN4Mesh7rescaleEv+0x150>
    62c9:	48 85 c0             	test   %rax,%rax
    62cc:	0f 84 d3 03 00 00    	je     66a5 <_ZN4Mesh7rescaleEv+0x545>
    62d2:	48 89 cf             	mov    %rcx,%rdi
    62d5:	48 83 e7 fe          	and    $0xfffffffffffffffe,%rdi
    62d9:	4c 8d 46 20          	lea    0x20(%rsi),%r8
    62dd:	31 d2                	xor    %edx,%edx
    62df:	66 0f 28 e3          	movapd %xmm3,%xmm4
    62e3:	66 66 66 66 2e 0f 1f 	data16 data16 data16 cs nopw 0x0(%rax,%rax,1)
    62ea:	84 00 00 00 00 00 
    62f0:	f2 41 0f 10 68 e8    	movsd  -0x18(%r8),%xmm5
    62f6:	f2 41 0f 10 30       	movsd  (%r8),%xmm6
    62fb:	f2 0f 5d e5          	minsd  %xmm5,%xmm4
    62ff:	f2 0f 5f dd          	maxsd  %xmm5,%xmm3
    6303:	f2 0f 5d e6          	minsd  %xmm6,%xmm4
    6307:	f2 0f 5f de          	maxsd  %xmm6,%xmm3
    630b:	48 83 c2 02          	add    $0x2,%rdx
    630f:	49 83 c0 30          	add    $0x30,%r8
    6313:	48 39 d7             	cmp    %rdx,%rdi
    6316:	75 d8                	jne    62f0 <_ZN4Mesh7rescaleEv+0x190>
    6318:	48 8d 7e 08          	lea    0x8(%rsi),%rdi
    631c:	f6 c1 01             	test   $0x1,%cl
    631f:	74 11                	je     6332 <_ZN4Mesh7rescaleEv+0x1d2>
    6321:	48 8d 14 52          	lea    (%rdx,%rdx,2),%rdx
    6325:	f2 0f 10 2c d7       	movsd  (%rdi,%rdx,8),%xmm5
    632a:	f2 0f 5d e5          	minsd  %xmm5,%xmm4
    632e:	f2 0f 5f dd          	maxsd  %xmm5,%xmm3
    6332:	89 ca                	mov    %ecx,%edx
    6334:	83 e2 03             	and    $0x3,%edx
    6337:	48 83 f9 04          	cmp    $0x4,%rcx
    633b:	73 05                	jae    6342 <_ZN4Mesh7rescaleEv+0x1e2>
    633d:	45 31 c0             	xor    %r8d,%r8d
    6340:	eb 59                	jmp    639b <_ZN4Mesh7rescaleEv+0x23b>
    6342:	49 89 c9             	mov    %rcx,%r9
    6345:	49 83 e1 fc          	and    $0xfffffffffffffffc,%r9
    6349:	4c 8d 56 50          	lea    0x50(%rsi),%r10
    634d:	45 31 c0             	xor    %r8d,%r8d
    6350:	f2 41 0f 10 6a b8    	movsd  -0x48(%r10),%xmm5
    6356:	f2 41 0f 10 72 d0    	movsd  -0x30(%r10),%xmm6
    635c:	f2 0f 5c ec          	subsd  %xmm4,%xmm5
    6360:	f2 41 0f 11 6a b8    	movsd  %xmm5,-0x48(%r10)
    6366:	f2 0f 5c f4          	subsd  %xmm4,%xmm6
    636a:	f2 41 0f 11 72 d0    	movsd  %xmm6,-0x30(%r10)
    6370:	f2 41 0f 10 6a e8    	movsd  -0x18(%r10),%xmm5
    6376:	f2 0f 5c ec          	subsd  %xmm4,%xmm5
    637a:	f2 41 0f 11 6a e8    	movsd  %xmm5,-0x18(%r10)
    6380:	f2 41 0f 10 2a       	movsd  (%r10),%xmm5
    6385:	f2 0f 5c ec          	subsd  %xmm4,%xmm5
    6389:	f2 41 0f 11 2a       	movsd  %xmm5,(%r10)
    638e:	49 83 c0 04          	add    $0x4,%r8
    6392:	49 83 c2 60          	add    $0x60,%r10
    6396:	4d 39 c1             	cmp    %r8,%r9
    6399:	75 b5                	jne    6350 <_ZN4Mesh7rescaleEv+0x1f0>
    639b:	48 85 d2             	test   %rdx,%rdx
    639e:	74 39                	je     63d9 <_ZN4Mesh7rescaleEv+0x279>
    63a0:	4f 8d 04 40          	lea    (%r8,%r8,2),%r8
    63a4:	4e 8d 04 c6          	lea    (%rsi,%r8,8),%r8
    63a8:	49 83 c0 08          	add    $0x8,%r8
    63ac:	48 c1 e2 03          	shl    $0x3,%rdx
    63b0:	48 8d 14 52          	lea    (%rdx,%rdx,2),%rdx
    63b4:	45 31 c9             	xor    %r9d,%r9d
    63b7:	66 0f 1f 84 00 00 00 	nopw   0x0(%rax,%rax,1)
    63be:	00 00 
    63c0:	f2 43 0f 10 2c 08    	movsd  (%r8,%r9,1),%xmm5
    63c6:	f2 0f 5c ec          	subsd  %xmm4,%xmm5
    63ca:	f2 43 0f 11 2c 08    	movsd  %xmm5,(%r8,%r9,1)
    63d0:	49 83 c1 18          	add    $0x18,%r9
    63d4:	4c 39 ca             	cmp    %r9,%rdx
    63d7:	75 e7                	jne    63c0 <_ZN4Mesh7rescaleEv+0x260>
    63d9:	48 85 c0             	test   %rax,%rax
    63dc:	0f 84 db 02 00 00    	je     66bd <_ZN4Mesh7rescaleEv+0x55d>
    63e2:	49 89 c8             	mov    %rcx,%r8
    63e5:	49 83 e0 fe          	and    $0xfffffffffffffffe,%r8
    63e9:	4c 8d 4e 28          	lea    0x28(%rsi),%r9
    63ed:	31 d2                	xor    %edx,%edx
    63ef:	66 0f 28 ea          	movapd %xmm2,%xmm5
    63f3:	66 66 66 66 2e 0f 1f 	data16 data16 data16 cs nopw 0x0(%rax,%rax,1)
    63fa:	84 00 00 00 00 00 
    6400:	f2 41 0f 10 71 e8    	movsd  -0x18(%r9),%xmm6
